
mhvlib-tutorial-RTC.elf:     file format elf32-avr

Sections:
Idx Name          Size      VMA       LMA       File off  Algn
  0 .data         0000000c  00800200  00002318  000023ac  2**0
                  CONTENTS, ALLOC, LOAD, DATA
  1 .text         00002318  00000000  00000000  00000094  2**1
                  CONTENTS, ALLOC, LOAD, READONLY, CODE
  2 .bss          00000159  0080020c  0080020c  000023b8  2**0
                  ALLOC
  3 .stab         00001260  00000000  00000000  000023b8  2**2
                  CONTENTS, READONLY, DEBUGGING
  4 .stabstr      0000031f  00000000  00000000  00003618  2**0
                  CONTENTS, READONLY, DEBUGGING
  5 .debug_aranges 00000080  00000000  00000000  00003937  2**0
                  CONTENTS, READONLY, DEBUGGING
  6 .debug_pubnames 0000007e  00000000  00000000  000039b7  2**0
                  CONTENTS, READONLY, DEBUGGING
  7 .debug_info   0000086a  00000000  00000000  00003a35  2**0
                  CONTENTS, READONLY, DEBUGGING
  8 .debug_abbrev 00000437  00000000  00000000  0000429f  2**0
                  CONTENTS, READONLY, DEBUGGING
  9 .debug_line   000008f7  00000000  00000000  000046d6  2**0
                  CONTENTS, READONLY, DEBUGGING
 10 .debug_frame  00000080  00000000  00000000  00004fd0  2**2
                  CONTENTS, READONLY, DEBUGGING
 11 .debug_str    000001aa  00000000  00000000  00005050  2**0
                  CONTENTS, READONLY, DEBUGGING
 12 .debug_loc    00000801  00000000  00000000  000051fa  2**0
                  CONTENTS, READONLY, DEBUGGING
 13 .debug_pubtypes 00000122  00000000  00000000  000059fb  2**0
                  CONTENTS, READONLY, DEBUGGING
 14 .debug_ranges 00000058  00000000  00000000  00005b1d  2**0
                  CONTENTS, READONLY, DEBUGGING

Disassembly of section .text:

00000000 <__vectors>:
       0:	0c 94 86 01 	jmp	0x30c	; 0x30c <__ctors_end>
       4:	0c 94 b7 01 	jmp	0x36e	; 0x36e <__bad_interrupt>
       8:	0c 94 b7 01 	jmp	0x36e	; 0x36e <__bad_interrupt>
       c:	0c 94 b7 01 	jmp	0x36e	; 0x36e <__bad_interrupt>
      10:	0c 94 b7 01 	jmp	0x36e	; 0x36e <__bad_interrupt>
      14:	0c 94 b7 01 	jmp	0x36e	; 0x36e <__bad_interrupt>
      18:	0c 94 b7 01 	jmp	0x36e	; 0x36e <__bad_interrupt>
      1c:	0c 94 b7 01 	jmp	0x36e	; 0x36e <__bad_interrupt>
      20:	0c 94 b7 01 	jmp	0x36e	; 0x36e <__bad_interrupt>
      24:	0c 94 b7 01 	jmp	0x36e	; 0x36e <__bad_interrupt>
      28:	0c 94 b7 01 	jmp	0x36e	; 0x36e <__bad_interrupt>
      2c:	0c 94 b7 01 	jmp	0x36e	; 0x36e <__bad_interrupt>
      30:	0c 94 b7 01 	jmp	0x36e	; 0x36e <__bad_interrupt>
      34:	0c 94 b7 01 	jmp	0x36e	; 0x36e <__bad_interrupt>
      38:	0c 94 b7 01 	jmp	0x36e	; 0x36e <__bad_interrupt>
      3c:	0c 94 b7 01 	jmp	0x36e	; 0x36e <__bad_interrupt>
      40:	0c 94 b7 01 	jmp	0x36e	; 0x36e <__bad_interrupt>
      44:	0c 94 b7 01 	jmp	0x36e	; 0x36e <__bad_interrupt>
      48:	0c 94 b7 01 	jmp	0x36e	; 0x36e <__bad_interrupt>
      4c:	0c 94 b7 01 	jmp	0x36e	; 0x36e <__bad_interrupt>
      50:	0c 94 b7 01 	jmp	0x36e	; 0x36e <__bad_interrupt>
      54:	0c 94 14 02 	jmp	0x428	; 0x428 <__vector_21>
      58:	0c 94 b7 01 	jmp	0x36e	; 0x36e <__bad_interrupt>
      5c:	0c 94 b7 01 	jmp	0x36e	; 0x36e <__bad_interrupt>
      60:	0c 94 b7 01 	jmp	0x36e	; 0x36e <__bad_interrupt>
      64:	0c 94 c0 01 	jmp	0x380	; 0x380 <__vector_25>
      68:	0c 94 b7 01 	jmp	0x36e	; 0x36e <__bad_interrupt>
      6c:	0c 94 ea 01 	jmp	0x3d4	; 0x3d4 <__vector_27>
      70:	0c 94 b7 01 	jmp	0x36e	; 0x36e <__bad_interrupt>
      74:	0c 94 b7 01 	jmp	0x36e	; 0x36e <__bad_interrupt>
      78:	0c 94 b7 01 	jmp	0x36e	; 0x36e <__bad_interrupt>
      7c:	0c 94 b7 01 	jmp	0x36e	; 0x36e <__bad_interrupt>
      80:	0c 94 b7 01 	jmp	0x36e	; 0x36e <__bad_interrupt>
      84:	0c 94 b7 01 	jmp	0x36e	; 0x36e <__bad_interrupt>
      88:	0c 94 b7 01 	jmp	0x36e	; 0x36e <__bad_interrupt>
      8c:	0c 94 b7 01 	jmp	0x36e	; 0x36e <__bad_interrupt>
      90:	0c 94 b7 01 	jmp	0x36e	; 0x36e <__bad_interrupt>
      94:	0c 94 b7 01 	jmp	0x36e	; 0x36e <__bad_interrupt>
      98:	0c 94 b7 01 	jmp	0x36e	; 0x36e <__bad_interrupt>
      9c:	0c 94 b7 01 	jmp	0x36e	; 0x36e <__bad_interrupt>
      a0:	0c 94 b7 01 	jmp	0x36e	; 0x36e <__bad_interrupt>
      a4:	0c 94 b7 01 	jmp	0x36e	; 0x36e <__bad_interrupt>
      a8:	0c 94 b7 01 	jmp	0x36e	; 0x36e <__bad_interrupt>
      ac:	0c 94 b7 01 	jmp	0x36e	; 0x36e <__bad_interrupt>
      b0:	0c 94 b7 01 	jmp	0x36e	; 0x36e <__bad_interrupt>
      b4:	0c 94 b7 01 	jmp	0x36e	; 0x36e <__bad_interrupt>
      b8:	0c 94 b7 01 	jmp	0x36e	; 0x36e <__bad_interrupt>
      bc:	0c 94 b7 01 	jmp	0x36e	; 0x36e <__bad_interrupt>
      c0:	0c 94 b7 01 	jmp	0x36e	; 0x36e <__bad_interrupt>
      c4:	0c 94 b7 01 	jmp	0x36e	; 0x36e <__bad_interrupt>
      c8:	0c 94 b7 01 	jmp	0x36e	; 0x36e <__bad_interrupt>
      cc:	0c 94 b7 01 	jmp	0x36e	; 0x36e <__bad_interrupt>
      d0:	0c 94 b7 01 	jmp	0x36e	; 0x36e <__bad_interrupt>
      d4:	0c 94 b7 01 	jmp	0x36e	; 0x36e <__bad_interrupt>
      d8:	0c 94 b7 01 	jmp	0x36e	; 0x36e <__bad_interrupt>
      dc:	0c 94 b7 01 	jmp	0x36e	; 0x36e <__bad_interrupt>
      e0:	0c 94 b7 01 	jmp	0x36e	; 0x36e <__bad_interrupt>

000000e4 <_ZZ4mainE3__c_9>:
      e4:	0d 0a 53 74 61 72 74 69 6e 67 20 63 6c 6f 63 6b     ..Starting clock
      f4:	0d 0a 00                                            ...

000000f7 <_ZZ4mainE3__c_8>:
      f7:	0d 0a 54 68 65 20 63 75 72 72 65 6e 74 20 75 6e     ..The current un
     107:	69 78 20 74 69 6d 65 73 74 61 6d 70 20 69 73 20     ix timestamp is 
     117:	25 6c 75 0d 0a 00                                   %lu...

0000011d <_ZZ4mainE3__c_7>:
     11d:	53 65 63 6f 6e 64 73 20 6d 75 73 74 20 62 65 20     Seconds must be 
     12d:	6c 65 73 73 20 74 68 61 6e 20 6f 72 20 65 71 75     less than or equ
     13d:	61 6c 20 74 6f 20 35 39 0d 0a 00                    al to 59...

00000148 <_ZZ4mainE3__c_6>:
     148:	4d 69 6e 75 74 65 73 20 6d 75 73 74 20 62 65 20     Minutes must be 
     158:	6c 65 73 73 20 74 68 61 6e 20 6f 72 20 65 71 75     less than or equ
     168:	61 6c 20 74 6f 20 35 39 0d 0a 00                    al to 59...

00000173 <_ZZ4mainE3__c_5>:
     173:	48 6f 75 72 20 6d 75 73 74 20 62 65 20 6c 65 73     Hour must be les
     183:	73 20 74 68 61 6e 20 6f 72 20 65 71 75 61 6c 20     s than or equal 
     193:	74 6f 20 32 33 0d 0a 00                             to 23...

0000019b <_ZZ4mainE3__c_4>:
     19b:	20 69 6e 63 6c 75 73 69 76 65 0d 0a 00               inclusive...

000001a8 <_ZZ4mainE3__c_3>:
     1a8:	44 61 79 20 6d 75 73 74 20 62 65 20 62 65 74 77     Day must be betw
     1b8:	65 65 6e 20 31 20 61 6e 64 20 00                    een 1 and .

000001c3 <_ZZ4mainE3__c_2>:
     1c3:	4d 6f 6e 74 68 20 6d 75 73 74 20 62 65 20 62 65     Month must be be
     1d3:	74 77 65 65 6e 20 31 20 61 6e 64 20 31 32 20 69     tween 1 and 12 i
     1e3:	6e 63 6c 75 73 69 76 65 0d 0a 00                    nclusive...

000001ee <_ZZ4mainE3__c_1>:
     1ee:	59 65 61 72 20 6d 75 73 74 20 62 65 20 6c 61 74     Year must be lat
     1fe:	65 72 20 74 68 61 6e 20 31 39 37 30 20 61 6e 64     er than 1970 and
     20e:	20 6c 65 73 73 20 74 68 61 6e 20 32 31 30 36 0d      less than 2106.
     21e:	0a 00                                               ..

00000220 <_ZZ4mainE3__c_0>:
     220:	20 20 20 20 20 20 20 20 20 20 20 20 20 20 20 20                     
     230:	20 20 20 20 20 20 20 20 20 20 20 20 20 20 20 20                     
     240:	3e 00                                               >.

00000242 <_ZZ4mainE3__c>:
     242:	50 6c 65 61 73 65 20 65 6e 74 65 72 20 74 68 65     Please enter the
     252:	20 63 75 72 72 65 6e 74 20 74 69 6d 65 20 69 6e      current time in
     262:	20 59 59 59 59 20 4d 4d 20 44 44 20 48 48 20 4d      YYYY MM DD HH M
     272:	4d 20 53 53 3a 0d 0a 00                             M SS:...

0000027a <_ZZ11insertEventP13mhv_timestampE3__c>:
     27a:	41 64 64 69 6e 67 20 65 76 65 6e 74 20 66 61 69     Adding event fai
     28a:	6c 65 64 0d 0a 00                                   led...

00000290 <_ZZ13oncePerSecondP9mhv_eventE3__c>:
     290:	54 68 65 20 63 75 72 72 65 6e 74 20 74 69 6d 65     The current time
     2a0:	20 69 73 20 25 30 32 75 3a 25 30 32 75 3a 25 30      is %02u:%02u:%0
     2b0:	32 75 20 25 75 2d 25 30 32 75 2d 25 30 32 75 20     2u %u-%02u-%02u 
     2c0:	20 28 25 6c 75 2e 25 30 33 75 29 0d 0a 00            (%lu.%03u)...

000002ce <_ZL24mhv_secondsFromYearStart>:
     2ce:	80 de 28 00 80 c8 4d 00 00 a7 76 00 00 34 9e 00     ..(...M...v..4..
     2de:	80 12 c7 00 80 9f ee 00 00 7e 17 01 80 5c 40 01     .........~...\@.
     2ee:	80 e9 67 01 00 c8 90 01 00 55 b8 01 80 33 e1 01     ..g......U...3..

000002fe <_ZL20mhv_daysInMonthArray>:
     2fe:	1f 1c 1f 1e 1f 1e 1f 1e 1e 1f 1e 1f                 ............

0000030a <__ctors_start>:
     30a:	36 04       	cpc	r3, r6

0000030c <__ctors_end>:
     30c:	11 24       	eor	r1, r1
     30e:	1f be       	out	0x3f, r1	; 63
     310:	cf ef       	ldi	r28, 0xFF	; 255
     312:	d1 e2       	ldi	r29, 0x21	; 33
     314:	de bf       	out	0x3e, r29	; 62
     316:	cd bf       	out	0x3d, r28	; 61

00000318 <__do_copy_data>:
     318:	12 e0       	ldi	r17, 0x02	; 2
     31a:	a0 e0       	ldi	r26, 0x00	; 0
     31c:	b2 e0       	ldi	r27, 0x02	; 2
     31e:	e8 e1       	ldi	r30, 0x18	; 24
     320:	f3 e2       	ldi	r31, 0x23	; 35
     322:	00 e0       	ldi	r16, 0x00	; 0
     324:	0b bf       	out	0x3b, r16	; 59
     326:	02 c0       	rjmp	.+4      	; 0x32c <__do_copy_data+0x14>
     328:	07 90       	elpm	r0, Z+
     32a:	0d 92       	st	X+, r0
     32c:	ac 30       	cpi	r26, 0x0C	; 12
     32e:	b1 07       	cpc	r27, r17
     330:	d9 f7       	brne	.-10     	; 0x328 <__do_copy_data+0x10>

00000332 <__do_clear_bss>:
     332:	13 e0       	ldi	r17, 0x03	; 3
     334:	ac e0       	ldi	r26, 0x0C	; 12
     336:	b2 e0       	ldi	r27, 0x02	; 2
     338:	01 c0       	rjmp	.+2      	; 0x33c <.do_clear_bss_start>

0000033a <.do_clear_bss_loop>:
     33a:	1d 92       	st	X+, r1

0000033c <.do_clear_bss_start>:
     33c:	a5 36       	cpi	r26, 0x65	; 101
     33e:	b1 07       	cpc	r27, r17
     340:	e1 f7       	brne	.-8      	; 0x33a <.do_clear_bss_loop>

00000342 <__do_global_ctors>:
     342:	13 e0       	ldi	r17, 0x03	; 3
     344:	00 e0       	ldi	r16, 0x00	; 0
     346:	cc e0       	ldi	r28, 0x0C	; 12
     348:	d3 e0       	ldi	r29, 0x03	; 3
     34a:	40 e0       	ldi	r20, 0x00	; 0
     34c:	08 c0       	rjmp	.+16     	; 0x35e <__do_global_ctors+0x1c>
     34e:	22 97       	sbiw	r28, 0x02	; 2
     350:	41 09       	sbc	r20, r1
     352:	fe 01       	movw	r30, r28
     354:	4b bf       	out	0x3b, r20	; 59
     356:	4f 93       	push	r20
     358:	0e 94 26 0e 	call	0x1c4c	; 0x1c4c <__tablejump_elpm__>
     35c:	4f 91       	pop	r20
     35e:	ca 30       	cpi	r28, 0x0A	; 10
     360:	d1 07       	cpc	r29, r17
     362:	40 07       	cpc	r20, r16
     364:	a1 f7       	brne	.-24     	; 0x34e <__do_global_ctors+0xc>
     366:	0e 94 f2 02 	call	0x5e4	; 0x5e4 <main>
     36a:	0c 94 8a 11 	jmp	0x2314	; 0x2314 <_exit>

0000036e <__bad_interrupt>:
     36e:	0c 94 00 00 	jmp	0	; 0x0 <__vectors>

00000372 <_Z10rtcTriggerPv>:
     372:	85 e5       	ldi	r24, 0x55	; 85
     374:	93 e0       	ldi	r25, 0x03	; 3
     376:	0e 94 8f 08 	call	0x111e	; 0x111e <_ZN7MHV_RTC7tick1msEv>
     37a:	08 95       	ret

0000037c <__cxa_pure_virtual>:
     37c:	f8 94       	cli
     37e:	ff cf       	rjmp	.-2      	; 0x37e <__cxa_pure_virtual+0x2>

00000380 <__vector_25>:
     380:	1f 92       	push	r1
     382:	0f 92       	push	r0
     384:	0f b6       	in	r0, 0x3f	; 63
     386:	0f 92       	push	r0
     388:	0b b6       	in	r0, 0x3b	; 59
     38a:	0f 92       	push	r0
     38c:	11 24       	eor	r1, r1
     38e:	2f 93       	push	r18
     390:	3f 93       	push	r19
     392:	4f 93       	push	r20
     394:	5f 93       	push	r21
     396:	6f 93       	push	r22
     398:	7f 93       	push	r23
     39a:	8f 93       	push	r24
     39c:	9f 93       	push	r25
     39e:	af 93       	push	r26
     3a0:	bf 93       	push	r27
     3a2:	ef 93       	push	r30
     3a4:	ff 93       	push	r31
     3a6:	88 eb       	ldi	r24, 0xB8	; 184
     3a8:	92 e0       	ldi	r25, 0x02	; 2
     3aa:	0e 94 5c 06 	call	0xcb8	; 0xcb8 <_ZN18MHV_HardwareSerial2rxEv>
     3ae:	ff 91       	pop	r31
     3b0:	ef 91       	pop	r30
     3b2:	bf 91       	pop	r27
     3b4:	af 91       	pop	r26
     3b6:	9f 91       	pop	r25
     3b8:	8f 91       	pop	r24
     3ba:	7f 91       	pop	r23
     3bc:	6f 91       	pop	r22
     3be:	5f 91       	pop	r21
     3c0:	4f 91       	pop	r20
     3c2:	3f 91       	pop	r19
     3c4:	2f 91       	pop	r18
     3c6:	0f 90       	pop	r0
     3c8:	0b be       	out	0x3b, r0	; 59
     3ca:	0f 90       	pop	r0
     3cc:	0f be       	out	0x3f, r0	; 63
     3ce:	0f 90       	pop	r0
     3d0:	1f 90       	pop	r1
     3d2:	18 95       	reti

000003d4 <__vector_27>:
     3d4:	1f 92       	push	r1
     3d6:	0f 92       	push	r0
     3d8:	0f b6       	in	r0, 0x3f	; 63
     3da:	0f 92       	push	r0
     3dc:	0b b6       	in	r0, 0x3b	; 59
     3de:	0f 92       	push	r0
     3e0:	11 24       	eor	r1, r1
     3e2:	2f 93       	push	r18
     3e4:	3f 93       	push	r19
     3e6:	4f 93       	push	r20
     3e8:	5f 93       	push	r21
     3ea:	6f 93       	push	r22
     3ec:	7f 93       	push	r23
     3ee:	8f 93       	push	r24
     3f0:	9f 93       	push	r25
     3f2:	af 93       	push	r26
     3f4:	bf 93       	push	r27
     3f6:	ef 93       	push	r30
     3f8:	ff 93       	push	r31
     3fa:	88 eb       	ldi	r24, 0xB8	; 184
     3fc:	92 e0       	ldi	r25, 0x02	; 2
     3fe:	0e 94 7e 06 	call	0xcfc	; 0xcfc <_ZN18MHV_HardwareSerial2txEv>
     402:	ff 91       	pop	r31
     404:	ef 91       	pop	r30
     406:	bf 91       	pop	r27
     408:	af 91       	pop	r26
     40a:	9f 91       	pop	r25
     40c:	8f 91       	pop	r24
     40e:	7f 91       	pop	r23
     410:	6f 91       	pop	r22
     412:	5f 91       	pop	r21
     414:	4f 91       	pop	r20
     416:	3f 91       	pop	r19
     418:	2f 91       	pop	r18
     41a:	0f 90       	pop	r0
     41c:	0b be       	out	0x3b, r0	; 59
     41e:	0f 90       	pop	r0
     420:	0f be       	out	0x3f, r0	; 63
     422:	0f 90       	pop	r0
     424:	1f 90       	pop	r1
     426:	18 95       	reti

00000428 <__vector_21>:
     428:	1f 92       	push	r1
     42a:	0f 92       	push	r0
     42c:	0f b6       	in	r0, 0x3f	; 63
     42e:	0f 92       	push	r0
     430:	0b b6       	in	r0, 0x3b	; 59
     432:	0f 92       	push	r0
     434:	11 24       	eor	r1, r1
     436:	2f 93       	push	r18
     438:	3f 93       	push	r19
     43a:	4f 93       	push	r20
     43c:	5f 93       	push	r21
     43e:	6f 93       	push	r22
     440:	7f 93       	push	r23
     442:	8f 93       	push	r24
     444:	9f 93       	push	r25
     446:	af 93       	push	r26
     448:	bf 93       	push	r27
     44a:	ef 93       	push	r30
     44c:	ff 93       	push	r31
     44e:	87 ed       	ldi	r24, 0xD7	; 215
     450:	92 e0       	ldi	r25, 0x02	; 2
     452:	0e 94 b2 0d 	call	0x1b64	; 0x1b64 <_ZN10MHV_Timer88trigger1Ev>
     456:	ff 91       	pop	r31
     458:	ef 91       	pop	r30
     45a:	bf 91       	pop	r27
     45c:	af 91       	pop	r26
     45e:	9f 91       	pop	r25
     460:	8f 91       	pop	r24
     462:	7f 91       	pop	r23
     464:	6f 91       	pop	r22
     466:	5f 91       	pop	r21
     468:	4f 91       	pop	r20
     46a:	3f 91       	pop	r19
     46c:	2f 91       	pop	r18
     46e:	0f 90       	pop	r0
     470:	0b be       	out	0x3b, r0	; 59
     472:	0f 90       	pop	r0
     474:	0f be       	out	0x3f, r0	; 63
     476:	0f 90       	pop	r0
     478:	1f 90       	pop	r1
     47a:	18 95       	reti

0000047c <_Z11insertEventP13mhv_timestamp>:
     47c:	df 93       	push	r29
     47e:	cf 93       	push	r28
     480:	cd b7       	in	r28, 0x3d	; 61
     482:	de b7       	in	r29, 0x3e	; 62
     484:	2a 97       	sbiw	r28, 0x0a	; 10
     486:	0f b6       	in	r0, 0x3f	; 63
     488:	f8 94       	cli
     48a:	de bf       	out	0x3e, r29	; 62
     48c:	0f be       	out	0x3f, r0	; 63
     48e:	cd bf       	out	0x3d, r28	; 61
     490:	1e 82       	std	Y+6, r1	; 0x06
     492:	1d 82       	std	Y+5, r1	; 0x05
     494:	fc 01       	movw	r30, r24
     496:	80 81       	ld	r24, Z
     498:	91 81       	ldd	r25, Z+1	; 0x01
     49a:	a2 81       	ldd	r26, Z+2	; 0x02
     49c:	b3 81       	ldd	r27, Z+3	; 0x03
     49e:	01 96       	adiw	r24, 0x01	; 1
     4a0:	a1 1d       	adc	r26, r1
     4a2:	b1 1d       	adc	r27, r1
     4a4:	89 83       	std	Y+1, r24	; 0x01
     4a6:	9a 83       	std	Y+2, r25	; 0x02
     4a8:	ab 83       	std	Y+3, r26	; 0x03
     4aa:	bc 83       	std	Y+4, r27	; 0x04
     4ac:	84 e7       	ldi	r24, 0x74	; 116
     4ae:	92 e0       	ldi	r25, 0x02	; 2
     4b0:	98 87       	std	Y+8, r25	; 0x08
     4b2:	8f 83       	std	Y+7, r24	; 0x07
     4b4:	1a 86       	std	Y+10, r1	; 0x0a
     4b6:	19 86       	std	Y+9, r1	; 0x09
     4b8:	85 e5       	ldi	r24, 0x55	; 85
     4ba:	93 e0       	ldi	r25, 0x03	; 3
     4bc:	be 01       	movw	r22, r28
     4be:	6f 5f       	subi	r22, 0xFF	; 255
     4c0:	7f 4f       	sbci	r23, 0xFF	; 255
     4c2:	0e 94 84 0a 	call	0x1508	; 0x1508 <_ZN7MHV_RTC8addEventEP9mhv_event>
     4c6:	88 23       	and	r24, r24
     4c8:	31 f0       	breq	.+12     	; 0x4d6 <_Z11insertEventP13mhv_timestamp+0x5a>
     4ca:	88 eb       	ldi	r24, 0xB8	; 184
     4cc:	92 e0       	ldi	r25, 0x02	; 2
     4ce:	6a e7       	ldi	r22, 0x7A	; 122
     4d0:	72 e0       	ldi	r23, 0x02	; 2
     4d2:	0e 94 9d 05 	call	0xb3a	; 0xb3a <_ZN13MHV_Device_TX7write_PEPKc>
     4d6:	2a 96       	adiw	r28, 0x0a	; 10
     4d8:	0f b6       	in	r0, 0x3f	; 63
     4da:	f8 94       	cli
     4dc:	de bf       	out	0x3e, r29	; 62
     4de:	0f be       	out	0x3f, r0	; 63
     4e0:	cd bf       	out	0x3d, r28	; 61
     4e2:	cf 91       	pop	r28
     4e4:	df 91       	pop	r29
     4e6:	08 95       	ret

000004e8 <_Z13oncePerSecondP9mhv_event>:
     4e8:	ef 92       	push	r14
     4ea:	ff 92       	push	r15
     4ec:	0f 93       	push	r16
     4ee:	1f 93       	push	r17
     4f0:	df 93       	push	r29
     4f2:	cf 93       	push	r28
     4f4:	cd b7       	in	r28, 0x3d	; 61
     4f6:	de b7       	in	r29, 0x3e	; 62
     4f8:	cd 56       	subi	r28, 0x6D	; 109
     4fa:	d0 40       	sbci	r29, 0x00	; 0
     4fc:	0f b6       	in	r0, 0x3f	; 63
     4fe:	f8 94       	cli
     500:	de bf       	out	0x3e, r29	; 62
     502:	0f be       	out	0x3f, r0	; 63
     504:	cd bf       	out	0x3d, r28	; 61
     506:	95 e5       	ldi	r25, 0x55	; 85
     508:	e9 2e       	mov	r14, r25
     50a:	93 e0       	ldi	r25, 0x03	; 3
     50c:	f9 2e       	mov	r15, r25
     50e:	c7 01       	movw	r24, r14
     510:	8e 01       	movw	r16, r28
     512:	0f 5f       	subi	r16, 0xFF	; 255
     514:	1f 4f       	sbci	r17, 0xFF	; 255
     516:	b8 01       	movw	r22, r16
     518:	0e 94 a8 08 	call	0x1150	; 0x1150 <_ZN7MHV_RTC7currentEP13mhv_timestamp>
     51c:	c7 01       	movw	r24, r14
     51e:	be 01       	movw	r22, r28
     520:	69 5f       	subi	r22, 0xF9	; 249
     522:	7f 4f       	sbci	r23, 0xFF	; 255
     524:	a8 01       	movw	r20, r16
     526:	0e 94 bb 08 	call	0x1176	; 0x1176 <_ZN7MHV_RTC6toTimeEP8mhv_timeP13mhv_timestamp>
     52a:	8d b7       	in	r24, 0x3d	; 61
     52c:	9e b7       	in	r25, 0x3e	; 62
     52e:	48 97       	sbiw	r24, 0x18	; 24
     530:	0f b6       	in	r0, 0x3f	; 63
     532:	f8 94       	cli
     534:	9e bf       	out	0x3e, r25	; 62
     536:	0f be       	out	0x3f, r0	; 63
     538:	8d bf       	out	0x3d, r24	; 61
     53a:	ed b7       	in	r30, 0x3d	; 61
     53c:	fe b7       	in	r31, 0x3e	; 62
     53e:	31 96       	adiw	r30, 0x01	; 1
     540:	84 e1       	ldi	r24, 0x14	; 20
     542:	e8 2e       	mov	r14, r24
     544:	f1 2c       	mov	r15, r1
     546:	ec 0e       	add	r14, r28
     548:	fd 1e       	adc	r15, r29
     54a:	ad b7       	in	r26, 0x3d	; 61
     54c:	be b7       	in	r27, 0x3e	; 62
     54e:	12 96       	adiw	r26, 0x02	; 2
     550:	fc 92       	st	X, r15
     552:	ee 92       	st	-X, r14
     554:	11 97       	sbiw	r26, 0x01	; 1
     556:	8a e5       	ldi	r24, 0x5A	; 90
     558:	90 e0       	ldi	r25, 0x00	; 0
     55a:	93 83       	std	Z+3, r25	; 0x03
     55c:	82 83       	std	Z+2, r24	; 0x02
     55e:	80 e9       	ldi	r24, 0x90	; 144
     560:	92 e0       	ldi	r25, 0x02	; 2
     562:	95 83       	std	Z+5, r25	; 0x05
     564:	84 83       	std	Z+4, r24	; 0x04
     566:	8b 85       	ldd	r24, Y+11	; 0x0b
     568:	86 83       	std	Z+6, r24	; 0x06
     56a:	17 82       	std	Z+7, r1	; 0x07
     56c:	8a 85       	ldd	r24, Y+10	; 0x0a
     56e:	80 87       	std	Z+8, r24	; 0x08
     570:	11 86       	std	Z+9, r1	; 0x09
     572:	89 85       	ldd	r24, Y+9	; 0x09
     574:	82 87       	std	Z+10, r24	; 0x0a
     576:	13 86       	std	Z+11, r1	; 0x0b
     578:	8e 85       	ldd	r24, Y+14	; 0x0e
     57a:	9f 85       	ldd	r25, Y+15	; 0x0f
     57c:	95 87       	std	Z+13, r25	; 0x0d
     57e:	84 87       	std	Z+12, r24	; 0x0c
     580:	8d 85       	ldd	r24, Y+13	; 0x0d
     582:	86 87       	std	Z+14, r24	; 0x0e
     584:	17 86       	std	Z+15, r1	; 0x0f
     586:	8c 85       	ldd	r24, Y+12	; 0x0c
     588:	80 8b       	std	Z+16, r24	; 0x10
     58a:	11 8a       	std	Z+17, r1	; 0x11
     58c:	89 81       	ldd	r24, Y+1	; 0x01
     58e:	9a 81       	ldd	r25, Y+2	; 0x02
     590:	ab 81       	ldd	r26, Y+3	; 0x03
     592:	bc 81       	ldd	r27, Y+4	; 0x04
     594:	82 8b       	std	Z+18, r24	; 0x12
     596:	93 8b       	std	Z+19, r25	; 0x13
     598:	a4 8b       	std	Z+20, r26	; 0x14
     59a:	b5 8b       	std	Z+21, r27	; 0x15
     59c:	8d 81       	ldd	r24, Y+5	; 0x05
     59e:	9e 81       	ldd	r25, Y+6	; 0x06
     5a0:	97 8b       	std	Z+23, r25	; 0x17
     5a2:	86 8b       	std	Z+22, r24	; 0x16
     5a4:	0e 94 83 0e 	call	0x1d06	; 0x1d06 <snprintf_P>
     5a8:	8d b7       	in	r24, 0x3d	; 61
     5aa:	9e b7       	in	r25, 0x3e	; 62
     5ac:	48 96       	adiw	r24, 0x18	; 24
     5ae:	0f b6       	in	r0, 0x3f	; 63
     5b0:	f8 94       	cli
     5b2:	9e bf       	out	0x3e, r25	; 62
     5b4:	0f be       	out	0x3f, r0	; 63
     5b6:	8d bf       	out	0x3d, r24	; 61
     5b8:	88 eb       	ldi	r24, 0xB8	; 184
     5ba:	92 e0       	ldi	r25, 0x02	; 2
     5bc:	b7 01       	movw	r22, r14
     5be:	0e 94 e8 05 	call	0xbd0	; 0xbd0 <_ZN13MHV_Device_TX5writeEPKc>
     5c2:	c8 01       	movw	r24, r16
     5c4:	0e 94 3e 02 	call	0x47c	; 0x47c <_Z11insertEventP13mhv_timestamp>
     5c8:	c3 59       	subi	r28, 0x93	; 147
     5ca:	df 4f       	sbci	r29, 0xFF	; 255
     5cc:	0f b6       	in	r0, 0x3f	; 63
     5ce:	f8 94       	cli
     5d0:	de bf       	out	0x3e, r29	; 62
     5d2:	0f be       	out	0x3f, r0	; 63
     5d4:	cd bf       	out	0x3d, r28	; 61
     5d6:	cf 91       	pop	r28
     5d8:	df 91       	pop	r29
     5da:	1f 91       	pop	r17
     5dc:	0f 91       	pop	r16
     5de:	ff 90       	pop	r15
     5e0:	ef 90       	pop	r14
     5e2:	08 95       	ret

000005e4 <main>:
     5e4:	4f 92       	push	r4
     5e6:	5f 92       	push	r5
     5e8:	6f 92       	push	r6
     5ea:	7f 92       	push	r7
     5ec:	8f 92       	push	r8
     5ee:	9f 92       	push	r9
     5f0:	af 92       	push	r10
     5f2:	bf 92       	push	r11
     5f4:	cf 92       	push	r12
     5f6:	df 92       	push	r13
     5f8:	ef 92       	push	r14
     5fa:	ff 92       	push	r15
     5fc:	0f 93       	push	r16
     5fe:	1f 93       	push	r17
     600:	df 93       	push	r29
     602:	cf 93       	push	r28
     604:	cd b7       	in	r28, 0x3d	; 61
     606:	de b7       	in	r29, 0x3e	; 62
     608:	c8 57       	subi	r28, 0x78	; 120
     60a:	d0 40       	sbci	r29, 0x00	; 0
     60c:	0f b6       	in	r0, 0x3f	; 63
     60e:	f8 94       	cli
     610:	de bf       	out	0x3e, r29	; 62
     612:	0f be       	out	0x3f, r0	; 63
     614:	cd bf       	out	0x3d, r28	; 61
     616:	78 94       	sei
     618:	87 ed       	ldi	r24, 0xD7	; 215
     61a:	92 e0       	ldi	r25, 0x02	; 2
     61c:	63 e0       	ldi	r22, 0x03	; 3
     61e:	49 ef       	ldi	r20, 0xF9	; 249
     620:	20 e0       	ldi	r18, 0x00	; 0
     622:	0e 94 13 0d 	call	0x1a26	; 0x1a26 <_ZN10MHV_Timer810setPeriodsE19mhv_timer_prescalerhh>
     626:	87 ed       	ldi	r24, 0xD7	; 215
     628:	92 e0       	ldi	r25, 0x02	; 2
     62a:	69 eb       	ldi	r22, 0xB9	; 185
     62c:	71 e0       	ldi	r23, 0x01	; 1
     62e:	40 e0       	ldi	r20, 0x00	; 0
     630:	50 e0       	ldi	r21, 0x00	; 0
     632:	20 e0       	ldi	r18, 0x00	; 0
     634:	30 e0       	ldi	r19, 0x00	; 0
     636:	00 e0       	ldi	r16, 0x00	; 0
     638:	10 e0       	ldi	r17, 0x00	; 0
     63a:	0e 94 c3 0d 	call	0x1b86	; 0x1b86 <_ZN10MHV_Timer811setTriggersEPFvPvES0_S2_S0_>
     63e:	8e 01       	movw	r16, r28
     640:	0c 5e       	subi	r16, 0xEC	; 236
     642:	1f 4f       	sbci	r17, 0xFF	; 255
     644:	79 e1       	ldi	r23, 0x19	; 25
     646:	c7 2e       	mov	r12, r23
     648:	d1 2c       	mov	r13, r1
     64a:	cc 0e       	add	r12, r28
     64c:	dd 1e       	adc	r13, r29
     64e:	6c e1       	ldi	r22, 0x1C	; 28
     650:	a6 2e       	mov	r10, r22
     652:	b1 2c       	mov	r11, r1
     654:	ac 0e       	add	r10, r28
     656:	bd 1e       	adc	r11, r29
     658:	5f e1       	ldi	r21, 0x1F	; 31
     65a:	85 2e       	mov	r8, r21
     65c:	91 2c       	mov	r9, r1
     65e:	8c 0e       	add	r8, r28
     660:	9d 1e       	adc	r9, r29
     662:	42 e2       	ldi	r20, 0x22	; 34
     664:	64 2e       	mov	r6, r20
     666:	71 2c       	mov	r7, r1
     668:	6c 0e       	add	r6, r28
     66a:	7d 1e       	adc	r7, r29
     66c:	35 e2       	ldi	r19, 0x25	; 37
     66e:	43 2e       	mov	r4, r19
     670:	51 2c       	mov	r5, r1
     672:	4c 0e       	add	r4, r28
     674:	5d 1e       	adc	r5, r29
     676:	88 eb       	ldi	r24, 0xB8	; 184
     678:	92 e0       	ldi	r25, 0x02	; 2
     67a:	62 e4       	ldi	r22, 0x42	; 66
     67c:	72 e0       	ldi	r23, 0x02	; 2
     67e:	0e 94 9d 05 	call	0xb3a	; 0xb3a <_ZN13MHV_Device_TX7write_PEPKc>
     682:	88 eb       	ldi	r24, 0xB8	; 184
     684:	92 e0       	ldi	r25, 0x02	; 2
     686:	60 e2       	ldi	r22, 0x20	; 32
     688:	72 e0       	ldi	r23, 0x02	; 2
     68a:	0e 94 9d 05 	call	0xb3a	; 0xb3a <_ZN13MHV_Device_TX7write_PEPKc>
     68e:	88 eb       	ldi	r24, 0xB8	; 184
     690:	92 e0       	ldi	r25, 0x02	; 2
     692:	61 e0       	ldi	r22, 0x01	; 1
     694:	0e 94 cc 07 	call	0xf98	; 0xf98 <_ZN18MHV_HardwareSerial4echoEb>
     698:	86 ec       	ldi	r24, 0xC6	; 198
     69a:	92 e0       	ldi	r25, 0x02	; 2
     69c:	b8 01       	movw	r22, r16
     69e:	44 e1       	ldi	r20, 0x14	; 20
     6a0:	0e 94 1c 05 	call	0xa38	; 0xa38 <_ZN13MHV_Device_RX12busyReadLineEPch>
     6a4:	88 eb       	ldi	r24, 0xB8	; 184
     6a6:	92 e0       	ldi	r25, 0x02	; 2
     6a8:	60 e0       	ldi	r22, 0x00	; 0
     6aa:	0e 94 cc 07 	call	0xf98	; 0xf98 <_ZN18MHV_HardwareSerial4echoEb>
     6ae:	18 86       	std	Y+8, r1	; 0x08
     6b0:	1f 82       	std	Y+7, r1	; 0x07
     6b2:	19 8a       	std	Y+17, r1	; 0x11
     6b4:	18 8a       	std	Y+16, r1	; 0x10
     6b6:	c8 01       	movw	r24, r16
     6b8:	0e 94 2a 0e 	call	0x1c54	; 0x1c54 <atoi>
     6bc:	7c 01       	movw	r14, r24
     6be:	9f 87       	std	Y+15, r25	; 0x0f
     6c0:	8e 87       	std	Y+14, r24	; 0x0e
     6c2:	c6 01       	movw	r24, r12
     6c4:	0e 94 2a 0e 	call	0x1c54	; 0x1c54 <atoi>
     6c8:	8d 87       	std	Y+13, r24	; 0x0d
     6ca:	c5 01       	movw	r24, r10
     6cc:	0e 94 2a 0e 	call	0x1c54	; 0x1c54 <atoi>
     6d0:	8c 87       	std	Y+12, r24	; 0x0c
     6d2:	c4 01       	movw	r24, r8
     6d4:	0e 94 2a 0e 	call	0x1c54	; 0x1c54 <atoi>
     6d8:	8b 87       	std	Y+11, r24	; 0x0b
     6da:	c3 01       	movw	r24, r6
     6dc:	0e 94 2a 0e 	call	0x1c54	; 0x1c54 <atoi>
     6e0:	8a 87       	std	Y+10, r24	; 0x0a
     6e2:	c2 01       	movw	r24, r4
     6e4:	0e 94 2a 0e 	call	0x1c54	; 0x1c54 <atoi>
     6e8:	89 87       	std	Y+9, r24	; 0x09
     6ea:	82 eb       	ldi	r24, 0xB2	; 178
     6ec:	e8 16       	cp	r14, r24
     6ee:	87 e0       	ldi	r24, 0x07	; 7
     6f0:	f8 06       	cpc	r15, r24
     6f2:	40 f4       	brcc	.+16     	; 0x704 <main+0x120>
     6f4:	88 eb       	ldi	r24, 0xB8	; 184
     6f6:	92 e0       	ldi	r25, 0x02	; 2
     6f8:	6e ee       	ldi	r22, 0xEE	; 238
     6fa:	71 e0       	ldi	r23, 0x01	; 1
     6fc:	0e 94 9d 05 	call	0xb3a	; 0xb3a <_ZN13MHV_Device_TX7write_PEPKc>
     700:	91 e0       	ldi	r25, 0x01	; 1
     702:	01 c0       	rjmp	.+2      	; 0x706 <main+0x122>
     704:	90 e0       	ldi	r25, 0x00	; 0
     706:	8d 85       	ldd	r24, Y+13	; 0x0d
     708:	81 50       	subi	r24, 0x01	; 1
     70a:	8d 30       	cpi	r24, 0x0D	; 13
     70c:	38 f0       	brcs	.+14     	; 0x71c <main+0x138>
     70e:	88 eb       	ldi	r24, 0xB8	; 184
     710:	92 e0       	ldi	r25, 0x02	; 2
     712:	63 ec       	ldi	r22, 0xC3	; 195
     714:	71 e0       	ldi	r23, 0x01	; 1
     716:	0e 94 9d 05 	call	0xb3a	; 0xb3a <_ZN13MHV_Device_TX7write_PEPKc>
     71a:	91 e0       	ldi	r25, 0x01	; 1
     71c:	ec 84       	ldd	r14, Y+12	; 0x0c
     71e:	ee 20       	and	r14, r14
     720:	69 f0       	breq	.+26     	; 0x73c <main+0x158>
     722:	6e 85       	ldd	r22, Y+14	; 0x0e
     724:	7f 85       	ldd	r23, Y+15	; 0x0f
     726:	8d 85       	ldd	r24, Y+13	; 0x0d
     728:	e9 96       	adiw	r28, 0x39	; 57
     72a:	9f af       	std	Y+63, r25	; 0x3f
     72c:	e9 97       	sbiw	r28, 0x39	; 57
     72e:	0e 94 41 08 	call	0x1082	; 0x1082 <_Z15mhv_daysInMonth9mhv_monthj>
     732:	e9 96       	adiw	r28, 0x39	; 57
     734:	9f ad       	ldd	r25, Y+63	; 0x3f
     736:	e9 97       	sbiw	r28, 0x39	; 57
     738:	8e 15       	cp	r24, r14
     73a:	e8 f4       	brcc	.+58     	; 0x776 <main+0x192>
     73c:	88 eb       	ldi	r24, 0xB8	; 184
     73e:	92 e0       	ldi	r25, 0x02	; 2
     740:	68 ea       	ldi	r22, 0xA8	; 168
     742:	71 e0       	ldi	r23, 0x01	; 1
     744:	0e 94 9d 05 	call	0xb3a	; 0xb3a <_ZN13MHV_Device_TX7write_PEPKc>
     748:	6e 85       	ldd	r22, Y+14	; 0x0e
     74a:	7f 85       	ldd	r23, Y+15	; 0x0f
     74c:	8d 85       	ldd	r24, Y+13	; 0x0d
     74e:	0e 94 41 08 	call	0x1082	; 0x1082 <_Z15mhv_daysInMonth9mhv_monthj>
     752:	90 e0       	ldi	r25, 0x00	; 0
     754:	b8 01       	movw	r22, r16
     756:	4a e0       	ldi	r20, 0x0A	; 10
     758:	50 e0       	ldi	r21, 0x00	; 0
     75a:	0e 94 5a 0e 	call	0x1cb4	; 0x1cb4 <itoa>
     75e:	88 eb       	ldi	r24, 0xB8	; 184
     760:	92 e0       	ldi	r25, 0x02	; 2
     762:	b8 01       	movw	r22, r16
     764:	0e 94 e8 05 	call	0xbd0	; 0xbd0 <_ZN13MHV_Device_TX5writeEPKc>
     768:	88 eb       	ldi	r24, 0xB8	; 184
     76a:	92 e0       	ldi	r25, 0x02	; 2
     76c:	6b e9       	ldi	r22, 0x9B	; 155
     76e:	71 e0       	ldi	r23, 0x01	; 1
     770:	0e 94 9d 05 	call	0xb3a	; 0xb3a <_ZN13MHV_Device_TX7write_PEPKc>
     774:	91 e0       	ldi	r25, 0x01	; 1
     776:	8b 85       	ldd	r24, Y+11	; 0x0b
     778:	88 31       	cpi	r24, 0x18	; 24
     77a:	38 f0       	brcs	.+14     	; 0x78a <main+0x1a6>
     77c:	88 eb       	ldi	r24, 0xB8	; 184
     77e:	92 e0       	ldi	r25, 0x02	; 2
     780:	63 e7       	ldi	r22, 0x73	; 115
     782:	71 e0       	ldi	r23, 0x01	; 1
     784:	0e 94 9d 05 	call	0xb3a	; 0xb3a <_ZN13MHV_Device_TX7write_PEPKc>
     788:	91 e0       	ldi	r25, 0x01	; 1
     78a:	8a 85       	ldd	r24, Y+10	; 0x0a
     78c:	8c 33       	cpi	r24, 0x3C	; 60
     78e:	38 f0       	brcs	.+14     	; 0x79e <main+0x1ba>
     790:	88 eb       	ldi	r24, 0xB8	; 184
     792:	92 e0       	ldi	r25, 0x02	; 2
     794:	68 e4       	ldi	r22, 0x48	; 72
     796:	71 e0       	ldi	r23, 0x01	; 1
     798:	0e 94 9d 05 	call	0xb3a	; 0xb3a <_ZN13MHV_Device_TX7write_PEPKc>
     79c:	91 e0       	ldi	r25, 0x01	; 1
     79e:	89 85       	ldd	r24, Y+9	; 0x09
     7a0:	8c 33       	cpi	r24, 0x3C	; 60
     7a2:	38 f0       	brcs	.+14     	; 0x7b2 <main+0x1ce>
     7a4:	88 eb       	ldi	r24, 0xB8	; 184
     7a6:	92 e0       	ldi	r25, 0x02	; 2
     7a8:	6d e1       	ldi	r22, 0x1D	; 29
     7aa:	71 e0       	ldi	r23, 0x01	; 1
     7ac:	0e 94 9d 05 	call	0xb3a	; 0xb3a <_ZN13MHV_Device_TX7write_PEPKc>
     7b0:	62 cf       	rjmp	.-316    	; 0x676 <main+0x92>
     7b2:	99 23       	and	r25, r25
     7b4:	09 f0       	breq	.+2      	; 0x7b8 <main+0x1d4>
     7b6:	5f cf       	rjmp	.-322    	; 0x676 <main+0x92>
     7b8:	85 e5       	ldi	r24, 0x55	; 85
     7ba:	93 e0       	ldi	r25, 0x03	; 3
     7bc:	8e 01       	movw	r16, r28
     7be:	0f 5f       	subi	r16, 0xFF	; 255
     7c0:	1f 4f       	sbci	r17, 0xFF	; 255
     7c2:	b8 01       	movw	r22, r16
     7c4:	ae 01       	movw	r20, r28
     7c6:	49 5f       	subi	r20, 0xF9	; 249
     7c8:	5f 4f       	sbci	r21, 0xFF	; 255
     7ca:	0e 94 bf 09 	call	0x137e	; 0x137e <_ZN7MHV_RTC11toTimestampEP13mhv_timestampP8mhv_time>
     7ce:	85 e5       	ldi	r24, 0x55	; 85
     7d0:	93 e0       	ldi	r25, 0x03	; 3
     7d2:	b8 01       	movw	r22, r16
     7d4:	0e 94 7d 08 	call	0x10fa	; 0x10fa <_ZN7MHV_RTC7setTimeEP13mhv_timestamp>
     7d8:	85 e5       	ldi	r24, 0x55	; 85
     7da:	93 e0       	ldi	r25, 0x03	; 3
     7dc:	b8 01       	movw	r22, r16
     7de:	0e 94 a8 08 	call	0x1150	; 0x1150 <_ZN7MHV_RTC7currentEP13mhv_timestamp>
     7e2:	ad b7       	in	r26, 0x3d	; 61
     7e4:	be b7       	in	r27, 0x3e	; 62
     7e6:	1a 97       	sbiw	r26, 0x0a	; 10
     7e8:	0f b6       	in	r0, 0x3f	; 63
     7ea:	f8 94       	cli
     7ec:	be bf       	out	0x3e, r27	; 62
     7ee:	0f be       	out	0x3f, r0	; 63
     7f0:	ad bf       	out	0x3d, r26	; 61
     7f2:	ed b7       	in	r30, 0x3d	; 61
     7f4:	fe b7       	in	r31, 0x3e	; 62
     7f6:	31 96       	adiw	r30, 0x01	; 1
     7f8:	28 e2       	ldi	r18, 0x28	; 40
     7fa:	e2 2e       	mov	r14, r18
     7fc:	f1 2c       	mov	r15, r1
     7fe:	ec 0e       	add	r14, r28
     800:	fd 1e       	adc	r15, r29
     802:	12 96       	adiw	r26, 0x02	; 2
     804:	fc 92       	st	X, r15
     806:	ee 92       	st	-X, r14
     808:	11 97       	sbiw	r26, 0x01	; 1
     80a:	80 e5       	ldi	r24, 0x50	; 80
     80c:	90 e0       	ldi	r25, 0x00	; 0
     80e:	93 83       	std	Z+3, r25	; 0x03
     810:	82 83       	std	Z+2, r24	; 0x02
     812:	87 ef       	ldi	r24, 0xF7	; 247
     814:	90 e0       	ldi	r25, 0x00	; 0
     816:	95 83       	std	Z+5, r25	; 0x05
     818:	84 83       	std	Z+4, r24	; 0x04
     81a:	89 81       	ldd	r24, Y+1	; 0x01
     81c:	9a 81       	ldd	r25, Y+2	; 0x02
     81e:	ab 81       	ldd	r26, Y+3	; 0x03
     820:	bc 81       	ldd	r27, Y+4	; 0x04
     822:	86 83       	std	Z+6, r24	; 0x06
     824:	97 83       	std	Z+7, r25	; 0x07
     826:	a0 87       	std	Z+8, r26	; 0x08
     828:	b1 87       	std	Z+9, r27	; 0x09
     82a:	0e 94 83 0e 	call	0x1d06	; 0x1d06 <snprintf_P>
     82e:	8d b7       	in	r24, 0x3d	; 61
     830:	9e b7       	in	r25, 0x3e	; 62
     832:	0a 96       	adiw	r24, 0x0a	; 10
     834:	0f b6       	in	r0, 0x3f	; 63
     836:	f8 94       	cli
     838:	9e bf       	out	0x3e, r25	; 62
     83a:	0f be       	out	0x3f, r0	; 63
     83c:	8d bf       	out	0x3d, r24	; 61
     83e:	88 eb       	ldi	r24, 0xB8	; 184
     840:	92 e0       	ldi	r25, 0x02	; 2
     842:	b7 01       	movw	r22, r14
     844:	0e 94 e8 05 	call	0xbd0	; 0xbd0 <_ZN13MHV_Device_TX5writeEPKc>
     848:	88 eb       	ldi	r24, 0xB8	; 184
     84a:	92 e0       	ldi	r25, 0x02	; 2
     84c:	64 ee       	ldi	r22, 0xE4	; 228
     84e:	70 e0       	ldi	r23, 0x00	; 0
     850:	0e 94 9d 05 	call	0xb3a	; 0xb3a <_ZN13MHV_Device_TX7write_PEPKc>
     854:	87 ed       	ldi	r24, 0xD7	; 215
     856:	92 e0       	ldi	r25, 0x02	; 2
     858:	0e 94 40 0d 	call	0x1a80	; 0x1a80 <_ZN10MHV_Timer86enableEv>
     85c:	c8 01       	movw	r24, r16
     85e:	0e 94 3e 02 	call	0x47c	; 0x47c <_Z11insertEventP13mhv_timestamp>
     862:	85 e5       	ldi	r24, 0x55	; 85
     864:	93 e0       	ldi	r25, 0x03	; 3
     866:	0e 94 10 0b 	call	0x1620	; 0x1620 <_ZN7MHV_RTC9runEventsEv>
     86a:	fb cf       	rjmp	.-10     	; 0x862 <main+0x27e>

0000086c <_GLOBAL__I___cxa_pure_virtual>:
     86c:	8f 92       	push	r8
     86e:	af 92       	push	r10
     870:	bf 92       	push	r11
     872:	cf 92       	push	r12
     874:	df 92       	push	r13
     876:	ef 92       	push	r14
     878:	ff 92       	push	r15
     87a:	0f 93       	push	r16
     87c:	1f 93       	push	r17
     87e:	cf 93       	push	r28
     880:	df 93       	push	r29
     882:	cd e5       	ldi	r28, 0x5D	; 93
     884:	d2 e0       	ldi	r29, 0x02	; 2
     886:	ce 01       	movw	r24, r28
     888:	6c e0       	ldi	r22, 0x0C	; 12
     88a:	72 e0       	ldi	r23, 0x02	; 2
     88c:	41 e5       	ldi	r20, 0x51	; 81
     88e:	0e 94 ab 0b 	call	0x1756	; 0x1756 <_ZN14MHV_RingBufferC1EPch>
     892:	03 eb       	ldi	r16, 0xB3	; 179
     894:	12 e0       	ldi	r17, 0x02	; 2
     896:	c8 01       	movw	r24, r16
     898:	62 e6       	ldi	r22, 0x62	; 98
     89a:	72 e0       	ldi	r23, 0x02	; 2
     89c:	41 e5       	ldi	r20, 0x51	; 81
     89e:	0e 94 ab 0b 	call	0x1756	; 0x1756 <_ZN14MHV_RingBufferC1EPch>
     8a2:	8d b7       	in	r24, 0x3d	; 61
     8a4:	9e b7       	in	r25, 0x3e	; 62
     8a6:	08 97       	sbiw	r24, 0x08	; 8
     8a8:	0f b6       	in	r0, 0x3f	; 63
     8aa:	f8 94       	cli
     8ac:	9e bf       	out	0x3e, r25	; 62
     8ae:	0f be       	out	0x3f, r0	; 63
     8b0:	8d bf       	out	0x3d, r24	; 61
     8b2:	ed b7       	in	r30, 0x3d	; 61
     8b4:	fe b7       	in	r31, 0x3e	; 62
     8b6:	31 96       	adiw	r30, 0x01	; 1
     8b8:	87 e0       	ldi	r24, 0x07	; 7
     8ba:	ad b7       	in	r26, 0x3d	; 61
     8bc:	be b7       	in	r27, 0x3e	; 62
     8be:	11 96       	adiw	r26, 0x01	; 1
     8c0:	8c 93       	st	X, r24
     8c2:	86 e0       	ldi	r24, 0x06	; 6
     8c4:	81 83       	std	Z+1, r24	; 0x01
     8c6:	85 e0       	ldi	r24, 0x05	; 5
     8c8:	82 83       	std	Z+2, r24	; 0x02
     8ca:	81 e0       	ldi	r24, 0x01	; 1
     8cc:	83 83       	std	Z+3, r24	; 0x03
     8ce:	80 e0       	ldi	r24, 0x00	; 0
     8d0:	92 ec       	ldi	r25, 0xC2	; 194
     8d2:	a1 e0       	ldi	r26, 0x01	; 1
     8d4:	b0 e0       	ldi	r27, 0x00	; 0
     8d6:	84 83       	std	Z+4, r24	; 0x04
     8d8:	95 83       	std	Z+5, r25	; 0x05
     8da:	a6 83       	std	Z+6, r26	; 0x06
     8dc:	b7 83       	std	Z+7, r27	; 0x07
     8de:	88 eb       	ldi	r24, 0xB8	; 184
     8e0:	92 e0       	ldi	r25, 0x02	; 2
     8e2:	be 01       	movw	r22, r28
     8e4:	a8 01       	movw	r20, r16
     8e6:	24 ec       	ldi	r18, 0xC4	; 196
     8e8:	30 e0       	ldi	r19, 0x00	; 0
     8ea:	00 ec       	ldi	r16, 0xC0	; 192
     8ec:	10 e0       	ldi	r17, 0x00	; 0
     8ee:	a1 ec       	ldi	r26, 0xC1	; 193
     8f0:	ea 2e       	mov	r14, r26
     8f2:	f1 2c       	mov	r15, r1
     8f4:	f6 ec       	ldi	r31, 0xC6	; 198
     8f6:	cf 2e       	mov	r12, r31
     8f8:	d1 2c       	mov	r13, r1
     8fa:	e4 e0       	ldi	r30, 0x04	; 4
     8fc:	ae 2e       	mov	r10, r30
     8fe:	b3 e0       	ldi	r27, 0x03	; 3
     900:	8b 2e       	mov	r8, r27
     902:	0e 94 7d 07 	call	0xefa	; 0xefa <_ZN18MHV_HardwareSerialC1EP14MHV_RingBufferS1_PVjPVhS5_S5_hhhhhhm>
     906:	8d b7       	in	r24, 0x3d	; 61
     908:	9e b7       	in	r25, 0x3e	; 62
     90a:	08 96       	adiw	r24, 0x08	; 8
     90c:	0f b6       	in	r0, 0x3f	; 63
     90e:	f8 94       	cli
     910:	9e bf       	out	0x3e, r25	; 62
     912:	0f be       	out	0x3f, r0	; 63
     914:	8d bf       	out	0x3d, r24	; 61
     916:	c7 ed       	ldi	r28, 0xD7	; 215
     918:	d2 e0       	ldi	r29, 0x02	; 2
     91a:	ce 01       	movw	r24, r28
     91c:	60 e0       	ldi	r22, 0x00	; 0
     91e:	44 e4       	ldi	r20, 0x44	; 68
     920:	50 e0       	ldi	r21, 0x00	; 0
     922:	25 e4       	ldi	r18, 0x45	; 69
     924:	30 e0       	ldi	r19, 0x00	; 0
     926:	07 e4       	ldi	r16, 0x47	; 71
     928:	10 e0       	ldi	r17, 0x00	; 0
     92a:	a8 e4       	ldi	r26, 0x48	; 72
     92c:	ea 2e       	mov	r14, r26
     92e:	f1 2c       	mov	r15, r1
     930:	f6 e4       	ldi	r31, 0x46	; 70
     932:	cf 2e       	mov	r12, r31
     934:	d1 2c       	mov	r13, r1
     936:	ee e6       	ldi	r30, 0x6E	; 110
     938:	ae 2e       	mov	r10, r30
     93a:	b1 2c       	mov	r11, r1
     93c:	88 24       	eor	r8, r8
     93e:	83 94       	inc	r8
     940:	0e 94 97 0c 	call	0x192e	; 0x192e <_ZN10MHV_Timer8C1E14mhv_timer_typePVhS2_S2_S2_S2_S2_h>
     944:	85 e5       	ldi	r24, 0x55	; 85
     946:	93 e0       	ldi	r25, 0x03	; 3
     948:	be 01       	movw	r22, r28
     94a:	41 ef       	ldi	r20, 0xF1	; 241
     94c:	52 e0       	ldi	r21, 0x02	; 2
     94e:	2a e0       	ldi	r18, 0x0A	; 10
     950:	08 e5       	ldi	r16, 0x58	; 88
     952:	12 e0       	ldi	r17, 0x02	; 2
     954:	0e 94 53 08 	call	0x10a6	; 0x10a6 <_ZN7MHV_RTCC1EP10MHV_Timer8P9mhv_eventhi>
     958:	df 91       	pop	r29
     95a:	cf 91       	pop	r28
     95c:	1f 91       	pop	r17
     95e:	0f 91       	pop	r16
     960:	ff 90       	pop	r15
     962:	ef 90       	pop	r14
     964:	df 90       	pop	r13
     966:	cf 90       	pop	r12
     968:	bf 90       	pop	r11
     96a:	af 90       	pop	r10
     96c:	8f 90       	pop	r8
     96e:	08 95       	ret

00000970 <_ZN13MHV_Device_RXC1EP14MHV_RingBuffer>:
     970:	fc 01       	movw	r30, r24
     972:	71 83       	std	Z+1, r23	; 0x01
     974:	60 83       	st	Z, r22
     976:	08 95       	ret

00000978 <_ZN13MHV_Device_RX13asyncReadLineEPch>:
     978:	bf 92       	push	r11
     97a:	cf 92       	push	r12
     97c:	df 92       	push	r13
     97e:	ef 92       	push	r14
     980:	ff 92       	push	r15
     982:	0f 93       	push	r16
     984:	1f 93       	push	r17
     986:	cf 93       	push	r28
     988:	df 93       	push	r29
     98a:	ec 01       	movw	r28, r24
     98c:	8b 01       	movw	r16, r22
     98e:	e4 2e       	mov	r14, r20
     990:	88 81       	ld	r24, Y
     992:	99 81       	ldd	r25, Y+1	; 0x01
     994:	0e 94 80 0c 	call	0x1900	; 0x1900 <_ZN14MHV_RingBuffer8peekHeadEv>
     998:	6c 01       	movw	r12, r24
     99a:	88 81       	ld	r24, Y
     99c:	99 81       	ldd	r25, Y+1	; 0x01
     99e:	0e 94 1e 0c 	call	0x183c	; 0x183c <_ZN14MHV_RingBuffer4fullEv>
     9a2:	b8 2e       	mov	r11, r24
     9a4:	88 23       	and	r24, r24
     9a6:	09 f5       	brne	.+66     	; 0x9ea <_ZN13MHV_Device_RX13asyncReadLineEPch+0x72>
     9a8:	8d e0       	ldi	r24, 0x0D	; 13
     9aa:	c8 16       	cp	r12, r24
     9ac:	d1 04       	cpc	r13, r1
     9ae:	e9 f0       	breq	.+58     	; 0x9ea <_ZN13MHV_Device_RX13asyncReadLineEPch+0x72>
     9b0:	ea e0       	ldi	r30, 0x0A	; 10
     9b2:	ce 16       	cp	r12, r30
     9b4:	d1 04       	cpc	r13, r1
     9b6:	81 f5       	brne	.+96     	; 0xa18 <_ZN13MHV_Device_RX13asyncReadLineEPch+0xa0>
     9b8:	18 c0       	rjmp	.+48     	; 0x9ea <_ZN13MHV_Device_RX13asyncReadLineEPch+0x72>
     9ba:	4c 2d       	mov	r20, r12
     9bc:	50 e0       	ldi	r21, 0x00	; 0
     9be:	4e 15       	cp	r20, r14
     9c0:	5f 05       	cpc	r21, r15
     9c2:	39 f4       	brne	.+14     	; 0x9d2 <_ZN13MHV_Device_RX13asyncReadLineEPch+0x5a>
     9c4:	0e 0d       	add	r16, r14
     9c6:	1f 1d       	adc	r17, r15
     9c8:	f8 01       	movw	r30, r16
     9ca:	10 82       	st	Z, r1
     9cc:	2e ef       	ldi	r18, 0xFE	; 254
     9ce:	3f ef       	ldi	r19, 0xFF	; 255
     9d0:	28 c0       	rjmp	.+80     	; 0xa22 <_ZN13MHV_Device_RX13asyncReadLineEPch+0xaa>
     9d2:	2d 30       	cpi	r18, 0x0D	; 13
     9d4:	31 05       	cpc	r19, r1
     9d6:	b9 f0       	breq	.+46     	; 0xa06 <_ZN13MHV_Device_RX13asyncReadLineEPch+0x8e>
     9d8:	2a 30       	cpi	r18, 0x0A	; 10
     9da:	31 05       	cpc	r19, r1
     9dc:	a1 f0       	breq	.+40     	; 0xa06 <_ZN13MHV_Device_RX13asyncReadLineEPch+0x8e>
     9de:	40 0f       	add	r20, r16
     9e0:	51 1f       	adc	r21, r17
     9e2:	fa 01       	movw	r30, r20
     9e4:	20 83       	st	Z, r18
     9e6:	c3 94       	inc	r12
     9e8:	05 c0       	rjmp	.+10     	; 0x9f4 <_ZN13MHV_Device_RX13asyncReadLineEPch+0x7c>
     9ea:	cc 24       	eor	r12, r12
     9ec:	ff 24       	eor	r15, r15
     9ee:	08 94       	sec
     9f0:	e1 08       	sbc	r14, r1
     9f2:	f1 08       	sbc	r15, r1
     9f4:	88 81       	ld	r24, Y
     9f6:	99 81       	ldd	r25, Y+1	; 0x01
     9f8:	0e 94 c7 0b 	call	0x178e	; 0x178e <_ZN14MHV_RingBuffer7consumeEv>
     9fc:	9c 01       	movw	r18, r24
     9fe:	ff ef       	ldi	r31, 0xFF	; 255
     a00:	8f 3f       	cpi	r24, 0xFF	; 255
     a02:	9f 07       	cpc	r25, r31
     a04:	d1 f6       	brne	.-76     	; 0x9ba <_ZN13MHV_Device_RX13asyncReadLineEPch+0x42>
     a06:	f8 01       	movw	r30, r16
     a08:	ec 0d       	add	r30, r12
     a0a:	f1 1d       	adc	r31, r1
     a0c:	10 82       	st	Z, r1
     a0e:	bb 20       	and	r11, r11
     a10:	31 f0       	breq	.+12     	; 0xa1e <_ZN13MHV_Device_RX13asyncReadLineEPch+0xa6>
     a12:	2d ef       	ldi	r18, 0xFD	; 253
     a14:	3f ef       	ldi	r19, 0xFF	; 255
     a16:	05 c0       	rjmp	.+10     	; 0xa22 <_ZN13MHV_Device_RX13asyncReadLineEPch+0xaa>
     a18:	2f ef       	ldi	r18, 0xFF	; 255
     a1a:	3f ef       	ldi	r19, 0xFF	; 255
     a1c:	02 c0       	rjmp	.+4      	; 0xa22 <_ZN13MHV_Device_RX13asyncReadLineEPch+0xaa>
     a1e:	20 e0       	ldi	r18, 0x00	; 0
     a20:	30 e0       	ldi	r19, 0x00	; 0
     a22:	c9 01       	movw	r24, r18
     a24:	df 91       	pop	r29
     a26:	cf 91       	pop	r28
     a28:	1f 91       	pop	r17
     a2a:	0f 91       	pop	r16
     a2c:	ff 90       	pop	r15
     a2e:	ef 90       	pop	r14
     a30:	df 90       	pop	r13
     a32:	cf 90       	pop	r12
     a34:	bf 90       	pop	r11
     a36:	08 95       	ret

00000a38 <_ZN13MHV_Device_RX12busyReadLineEPch>:
     a38:	ff 92       	push	r15
     a3a:	0f 93       	push	r16
     a3c:	1f 93       	push	r17
     a3e:	cf 93       	push	r28
     a40:	df 93       	push	r29
     a42:	ec 01       	movw	r28, r24
     a44:	8b 01       	movw	r16, r22
     a46:	f4 2e       	mov	r15, r20
     a48:	ce 01       	movw	r24, r28
     a4a:	b8 01       	movw	r22, r16
     a4c:	4f 2d       	mov	r20, r15
     a4e:	0e 94 bc 04 	call	0x978	; 0x978 <_ZN13MHV_Device_RX13asyncReadLineEPch>
     a52:	9c 01       	movw	r18, r24
     a54:	8f ef       	ldi	r24, 0xFF	; 255
     a56:	2f 3f       	cpi	r18, 0xFF	; 255
     a58:	38 07       	cpc	r19, r24
     a5a:	b1 f3       	breq	.-20     	; 0xa48 <_ZN13MHV_Device_RX12busyReadLineEPch+0x10>
     a5c:	c9 01       	movw	r24, r18
     a5e:	df 91       	pop	r29
     a60:	cf 91       	pop	r28
     a62:	1f 91       	pop	r17
     a64:	0f 91       	pop	r16
     a66:	ff 90       	pop	r15
     a68:	08 95       	ret

00000a6a <_ZN13MHV_Device_TXC1EP14MHV_RingBuffer>:
     a6a:	fc 01       	movw	r30, r24
     a6c:	84 e0       	ldi	r24, 0x04	; 4
     a6e:	92 e0       	ldi	r25, 0x02	; 2
     a70:	91 83       	std	Z+1, r25	; 0x01
     a72:	80 83       	st	Z, r24
     a74:	73 87       	std	Z+11, r23	; 0x0b
     a76:	62 87       	std	Z+10, r22	; 0x0a
     a78:	13 82       	std	Z+3, r1	; 0x03
     a7a:	12 82       	std	Z+2, r1	; 0x02
     a7c:	15 82       	std	Z+5, r1	; 0x05
     a7e:	14 82       	std	Z+4, r1	; 0x04
     a80:	17 82       	std	Z+7, r1	; 0x07
     a82:	16 82       	std	Z+6, r1	; 0x06
     a84:	10 86       	std	Z+8, r1	; 0x08
     a86:	11 86       	std	Z+9, r1	; 0x09
     a88:	08 95       	ret

00000a8a <_ZN13MHV_Device_TX6moreTXEv>:
     a8a:	cf 93       	push	r28
     a8c:	df 93       	push	r29
     a8e:	ec 01       	movw	r28, r24
     a90:	ee 81       	ldd	r30, Y+6	; 0x06
     a92:	ff 81       	ldd	r31, Y+7	; 0x07
     a94:	30 97       	sbiw	r30, 0x00	; 0
     a96:	19 f0       	breq	.+6      	; 0xa9e <_ZN13MHV_Device_TX6moreTXEv+0x14>
     a98:	8a 81       	ldd	r24, Y+2	; 0x02
     a9a:	9b 81       	ldd	r25, Y+3	; 0x03
     a9c:	09 95       	icall
     a9e:	be 01       	movw	r22, r28
     aa0:	6e 5f       	subi	r22, 0xFE	; 254
     aa2:	7f 4f       	sbci	r23, 0xFF	; 255
     aa4:	8a 85       	ldd	r24, Y+10	; 0x0a
     aa6:	9b 85       	ldd	r25, Y+11	; 0x0b
     aa8:	48 e0       	ldi	r20, 0x08	; 8
     aaa:	0e 94 f0 0b 	call	0x17e0	; 0x17e0 <_ZN14MHV_RingBuffer7consumeEPvh>
     aae:	88 23       	and	r24, r24
     ab0:	21 f0       	breq	.+8      	; 0xaba <_ZN13MHV_Device_TX6moreTXEv+0x30>
     ab2:	1d 86       	std	Y+13, r1	; 0x0d
     ab4:	1c 86       	std	Y+12, r1	; 0x0c
     ab6:	80 e0       	ldi	r24, 0x00	; 0
     ab8:	05 c0       	rjmp	.+10     	; 0xac4 <_ZN13MHV_Device_TX6moreTXEv+0x3a>
     aba:	8a 81       	ldd	r24, Y+2	; 0x02
     abc:	9b 81       	ldd	r25, Y+3	; 0x03
     abe:	9d 87       	std	Y+13, r25	; 0x0d
     ac0:	8c 87       	std	Y+12, r24	; 0x0c
     ac2:	81 e0       	ldi	r24, 0x01	; 1
     ac4:	df 91       	pop	r29
     ac6:	cf 91       	pop	r28
     ac8:	08 95       	ret

00000aca <_ZN13MHV_Device_TX13nextCharacterEv>:
     aca:	cf 93       	push	r28
     acc:	df 93       	push	r29
     ace:	ec 01       	movw	r28, r24
     ad0:	ec 85       	ldd	r30, Y+12	; 0x0c
     ad2:	fd 85       	ldd	r31, Y+13	; 0x0d
     ad4:	30 97       	sbiw	r30, 0x00	; 0
     ad6:	39 f0       	breq	.+14     	; 0xae6 <_ZN13MHV_Device_TX13nextCharacterEv+0x1c>
     ad8:	88 85       	ldd	r24, Y+8	; 0x08
     ada:	88 23       	and	r24, r24
     adc:	11 f0       	breq	.+4      	; 0xae2 <_ZN13MHV_Device_TX13nextCharacterEv+0x18>
     ade:	24 91       	lpm	r18, Z
     ae0:	03 c0       	rjmp	.+6      	; 0xae8 <_ZN13MHV_Device_TX13nextCharacterEv+0x1e>
     ae2:	20 81       	ld	r18, Z
     ae4:	01 c0       	rjmp	.+2      	; 0xae8 <_ZN13MHV_Device_TX13nextCharacterEv+0x1e>
     ae6:	20 e0       	ldi	r18, 0x00	; 0
     ae8:	89 85       	ldd	r24, Y+9	; 0x09
     aea:	88 23       	and	r24, r24
     aec:	19 f0       	breq	.+6      	; 0xaf4 <_ZN13MHV_Device_TX13nextCharacterEv+0x2a>
     aee:	22 23       	and	r18, r18
     af0:	51 f0       	breq	.+20     	; 0xb06 <_ZN13MHV_Device_TX13nextCharacterEv+0x3c>
     af2:	1b c0       	rjmp	.+54     	; 0xb2a <_ZN13MHV_Device_TX13nextCharacterEv+0x60>
     af4:	8a 81       	ldd	r24, Y+2	; 0x02
     af6:	9b 81       	ldd	r25, Y+3	; 0x03
     af8:	4c 81       	ldd	r20, Y+4	; 0x04
     afa:	5d 81       	ldd	r21, Y+5	; 0x05
     afc:	84 0f       	add	r24, r20
     afe:	95 1f       	adc	r25, r21
     b00:	e8 17       	cp	r30, r24
     b02:	f9 07       	cpc	r31, r25
     b04:	91 f4       	brne	.+36     	; 0xb2a <_ZN13MHV_Device_TX13nextCharacterEv+0x60>
     b06:	ce 01       	movw	r24, r28
     b08:	0e 94 45 05 	call	0xa8a	; 0xa8a <_ZN13MHV_Device_TX6moreTXEv>
     b0c:	88 23       	and	r24, r24
     b0e:	01 f7       	brne	.-64     	; 0xad0 <_ZN13MHV_Device_TX13nextCharacterEv+0x6>
     b10:	1d 86       	std	Y+13, r1	; 0x0d
     b12:	1c 86       	std	Y+12, r1	; 0x0c
     b14:	1b 82       	std	Y+3, r1	; 0x03
     b16:	1a 82       	std	Y+2, r1	; 0x02
     b18:	1d 82       	std	Y+5, r1	; 0x05
     b1a:	1c 82       	std	Y+4, r1	; 0x04
     b1c:	1f 82       	std	Y+7, r1	; 0x07
     b1e:	1e 82       	std	Y+6, r1	; 0x06
     b20:	18 86       	std	Y+8, r1	; 0x08
     b22:	19 86       	std	Y+9, r1	; 0x09
     b24:	2f ef       	ldi	r18, 0xFF	; 255
     b26:	3f ef       	ldi	r19, 0xFF	; 255
     b28:	04 c0       	rjmp	.+8      	; 0xb32 <_ZN13MHV_Device_TX13nextCharacterEv+0x68>
     b2a:	31 96       	adiw	r30, 0x01	; 1
     b2c:	fd 87       	std	Y+13, r31	; 0x0d
     b2e:	ec 87       	std	Y+12, r30	; 0x0c
     b30:	30 e0       	ldi	r19, 0x00	; 0
     b32:	c9 01       	movw	r24, r18
     b34:	df 91       	pop	r29
     b36:	cf 91       	pop	r28
     b38:	08 95       	ret

00000b3a <_ZN13MHV_Device_TX7write_PEPKc>:
     b3a:	ef 92       	push	r14
     b3c:	ff 92       	push	r15
     b3e:	0f 93       	push	r16
     b40:	1f 93       	push	r17
     b42:	df 93       	push	r29
     b44:	cf 93       	push	r28
     b46:	cd b7       	in	r28, 0x3d	; 61
     b48:	de b7       	in	r29, 0x3e	; 62
     b4a:	28 97       	sbiw	r28, 0x08	; 8
     b4c:	0f b6       	in	r0, 0x3f	; 63
     b4e:	f8 94       	cli
     b50:	de bf       	out	0x3e, r29	; 62
     b52:	0f be       	out	0x3f, r0	; 63
     b54:	cd bf       	out	0x3d, r28	; 61
     b56:	8c 01       	movw	r16, r24
     b58:	7b 01       	movw	r14, r22
     b5a:	dc 01       	movw	r26, r24
     b5c:	1a 96       	adiw	r26, 0x0a	; 10
     b5e:	8d 91       	ld	r24, X+
     b60:	9c 91       	ld	r25, X
     b62:	1b 97       	sbiw	r26, 0x0b	; 11
     b64:	68 e0       	ldi	r22, 0x08	; 8
     b66:	0e 94 31 0c 	call	0x1862	; 0x1862 <_ZN14MHV_RingBuffer4fullEh>
     b6a:	88 23       	and	r24, r24
     b6c:	09 f5       	brne	.+66     	; 0xbb0 <_ZN13MHV_Device_TX7write_PEPKc+0x76>
     b6e:	fa 82       	std	Y+2, r15	; 0x02
     b70:	e9 82       	std	Y+1, r14	; 0x01
     b72:	1c 82       	std	Y+4, r1	; 0x04
     b74:	1b 82       	std	Y+3, r1	; 0x03
     b76:	1e 82       	std	Y+6, r1	; 0x06
     b78:	1d 82       	std	Y+5, r1	; 0x05
     b7a:	81 e0       	ldi	r24, 0x01	; 1
     b7c:	8f 83       	std	Y+7, r24	; 0x07
     b7e:	88 87       	std	Y+8, r24	; 0x08
     b80:	f8 01       	movw	r30, r16
     b82:	82 85       	ldd	r24, Z+10	; 0x0a
     b84:	93 85       	ldd	r25, Z+11	; 0x0b
     b86:	be 01       	movw	r22, r28
     b88:	6f 5f       	subi	r22, 0xFF	; 255
     b8a:	7f 4f       	sbci	r23, 0xFF	; 255
     b8c:	48 e0       	ldi	r20, 0x08	; 8
     b8e:	0e 94 51 0c 	call	0x18a2	; 0x18a2 <_ZN14MHV_RingBuffer6appendEPKvh>
     b92:	d8 01       	movw	r26, r16
     b94:	1c 96       	adiw	r26, 0x0c	; 12
     b96:	8d 91       	ld	r24, X+
     b98:	9c 91       	ld	r25, X
     b9a:	1d 97       	sbiw	r26, 0x0d	; 13
     b9c:	00 97       	sbiw	r24, 0x00	; 0
     b9e:	51 f4       	brne	.+20     	; 0xbb4 <_ZN13MHV_Device_TX7write_PEPKc+0x7a>
     ba0:	ed 91       	ld	r30, X+
     ba2:	fc 91       	ld	r31, X
     ba4:	01 90       	ld	r0, Z+
     ba6:	f0 81       	ld	r31, Z
     ba8:	e0 2d       	mov	r30, r0
     baa:	c8 01       	movw	r24, r16
     bac:	09 95       	icall
     bae:	02 c0       	rjmp	.+4      	; 0xbb4 <_ZN13MHV_Device_TX7write_PEPKc+0x7a>
     bb0:	81 e0       	ldi	r24, 0x01	; 1
     bb2:	01 c0       	rjmp	.+2      	; 0xbb6 <_ZN13MHV_Device_TX7write_PEPKc+0x7c>
     bb4:	80 e0       	ldi	r24, 0x00	; 0
     bb6:	28 96       	adiw	r28, 0x08	; 8
     bb8:	0f b6       	in	r0, 0x3f	; 63
     bba:	f8 94       	cli
     bbc:	de bf       	out	0x3e, r29	; 62
     bbe:	0f be       	out	0x3f, r0	; 63
     bc0:	cd bf       	out	0x3d, r28	; 61
     bc2:	cf 91       	pop	r28
     bc4:	df 91       	pop	r29
     bc6:	1f 91       	pop	r17
     bc8:	0f 91       	pop	r16
     bca:	ff 90       	pop	r15
     bcc:	ef 90       	pop	r14
     bce:	08 95       	ret

00000bd0 <_ZN13MHV_Device_TX5writeEPKc>:
     bd0:	ef 92       	push	r14
     bd2:	ff 92       	push	r15
     bd4:	0f 93       	push	r16
     bd6:	1f 93       	push	r17
     bd8:	df 93       	push	r29
     bda:	cf 93       	push	r28
     bdc:	cd b7       	in	r28, 0x3d	; 61
     bde:	de b7       	in	r29, 0x3e	; 62
     be0:	28 97       	sbiw	r28, 0x08	; 8
     be2:	0f b6       	in	r0, 0x3f	; 63
     be4:	f8 94       	cli
     be6:	de bf       	out	0x3e, r29	; 62
     be8:	0f be       	out	0x3f, r0	; 63
     bea:	cd bf       	out	0x3d, r28	; 61
     bec:	8c 01       	movw	r16, r24
     bee:	7b 01       	movw	r14, r22
     bf0:	dc 01       	movw	r26, r24
     bf2:	1a 96       	adiw	r26, 0x0a	; 10
     bf4:	8d 91       	ld	r24, X+
     bf6:	9c 91       	ld	r25, X
     bf8:	1b 97       	sbiw	r26, 0x0b	; 11
     bfa:	68 e0       	ldi	r22, 0x08	; 8
     bfc:	0e 94 31 0c 	call	0x1862	; 0x1862 <_ZN14MHV_RingBuffer4fullEh>
     c00:	88 23       	and	r24, r24
     c02:	09 f5       	brne	.+66     	; 0xc46 <_ZN13MHV_Device_TX5writeEPKc+0x76>
     c04:	fa 82       	std	Y+2, r15	; 0x02
     c06:	e9 82       	std	Y+1, r14	; 0x01
     c08:	1c 82       	std	Y+4, r1	; 0x04
     c0a:	1b 82       	std	Y+3, r1	; 0x03
     c0c:	1e 82       	std	Y+6, r1	; 0x06
     c0e:	1d 82       	std	Y+5, r1	; 0x05
     c10:	1f 82       	std	Y+7, r1	; 0x07
     c12:	81 e0       	ldi	r24, 0x01	; 1
     c14:	88 87       	std	Y+8, r24	; 0x08
     c16:	f8 01       	movw	r30, r16
     c18:	82 85       	ldd	r24, Z+10	; 0x0a
     c1a:	93 85       	ldd	r25, Z+11	; 0x0b
     c1c:	be 01       	movw	r22, r28
     c1e:	6f 5f       	subi	r22, 0xFF	; 255
     c20:	7f 4f       	sbci	r23, 0xFF	; 255
     c22:	48 e0       	ldi	r20, 0x08	; 8
     c24:	0e 94 51 0c 	call	0x18a2	; 0x18a2 <_ZN14MHV_RingBuffer6appendEPKvh>
     c28:	d8 01       	movw	r26, r16
     c2a:	1c 96       	adiw	r26, 0x0c	; 12
     c2c:	8d 91       	ld	r24, X+
     c2e:	9c 91       	ld	r25, X
     c30:	1d 97       	sbiw	r26, 0x0d	; 13
     c32:	00 97       	sbiw	r24, 0x00	; 0
     c34:	51 f4       	brne	.+20     	; 0xc4a <_ZN13MHV_Device_TX5writeEPKc+0x7a>
     c36:	ed 91       	ld	r30, X+
     c38:	fc 91       	ld	r31, X
     c3a:	01 90       	ld	r0, Z+
     c3c:	f0 81       	ld	r31, Z
     c3e:	e0 2d       	mov	r30, r0
     c40:	c8 01       	movw	r24, r16
     c42:	09 95       	icall
     c44:	02 c0       	rjmp	.+4      	; 0xc4a <_ZN13MHV_Device_TX5writeEPKc+0x7a>
     c46:	81 e0       	ldi	r24, 0x01	; 1
     c48:	01 c0       	rjmp	.+2      	; 0xc4c <_ZN13MHV_Device_TX5writeEPKc+0x7c>
     c4a:	80 e0       	ldi	r24, 0x00	; 0
     c4c:	28 96       	adiw	r28, 0x08	; 8
     c4e:	0f b6       	in	r0, 0x3f	; 63
     c50:	f8 94       	cli
     c52:	de bf       	out	0x3e, r29	; 62
     c54:	0f be       	out	0x3f, r0	; 63
     c56:	cd bf       	out	0x3d, r28	; 61
     c58:	cf 91       	pop	r28
     c5a:	df 91       	pop	r29
     c5c:	1f 91       	pop	r17
     c5e:	0f 91       	pop	r16
     c60:	ff 90       	pop	r15
     c62:	ef 90       	pop	r14
     c64:	08 95       	ret

00000c66 <_ZN18MHV_HardwareSerial12runTxBuffersEv>:
     c66:	cf 93       	push	r28
     c68:	df 93       	push	r29
     c6a:	ec 01       	movw	r28, r24
     c6c:	0e 94 65 05 	call	0xaca	; 0xaca <_ZN13MHV_Device_TX13nextCharacterEv>
     c70:	2f ef       	ldi	r18, 0xFF	; 255
     c72:	8f 3f       	cpi	r24, 0xFF	; 255
     c74:	92 07       	cpc	r25, r18
     c76:	e9 f0       	breq	.+58     	; 0xcb2 <_ZN18MHV_HardwareSerial12runTxBuffersEv+0x4c>
     c78:	ec 89       	ldd	r30, Y+20	; 0x14
     c7a:	fd 89       	ldd	r31, Y+21	; 0x15
     c7c:	40 81       	ld	r20, Z
     c7e:	21 e0       	ldi	r18, 0x01	; 1
     c80:	30 e0       	ldi	r19, 0x00	; 0
     c82:	0b 8c       	ldd	r0, Y+27	; 0x1b
     c84:	02 c0       	rjmp	.+4      	; 0xc8a <_ZN18MHV_HardwareSerial12runTxBuffersEv+0x24>
     c86:	22 0f       	add	r18, r18
     c88:	33 1f       	adc	r19, r19
     c8a:	0a 94       	dec	r0
     c8c:	e2 f7       	brpl	.-8      	; 0xc86 <_ZN18MHV_HardwareSerial12runTxBuffersEv+0x20>
     c8e:	42 2b       	or	r20, r18
     c90:	40 83       	st	Z, r20
     c92:	ea 89       	ldd	r30, Y+18	; 0x12
     c94:	fb 89       	ldd	r31, Y+19	; 0x13
     c96:	4c 8d       	ldd	r20, Y+28	; 0x1c
     c98:	20 81       	ld	r18, Z
     c9a:	30 e0       	ldi	r19, 0x00	; 0
     c9c:	04 2e       	mov	r0, r20
     c9e:	02 c0       	rjmp	.+4      	; 0xca4 <_ZN18MHV_HardwareSerial12runTxBuffersEv+0x3e>
     ca0:	35 95       	asr	r19
     ca2:	27 95       	ror	r18
     ca4:	0a 94       	dec	r0
     ca6:	e2 f7       	brpl	.-8      	; 0xca0 <_ZN18MHV_HardwareSerial12runTxBuffersEv+0x3a>
     ca8:	20 ff       	sbrs	r18, 0
     caa:	f6 cf       	rjmp	.-20     	; 0xc98 <_ZN18MHV_HardwareSerial12runTxBuffersEv+0x32>
     cac:	ee 89       	ldd	r30, Y+22	; 0x16
     cae:	ff 89       	ldd	r31, Y+23	; 0x17
     cb0:	80 83       	st	Z, r24
     cb2:	df 91       	pop	r29
     cb4:	cf 91       	pop	r28
     cb6:	08 95       	ret

00000cb8 <_ZN18MHV_HardwareSerial2rxEv>:
     cb8:	1f 93       	push	r17
     cba:	cf 93       	push	r28
     cbc:	df 93       	push	r29
     cbe:	ec 01       	movw	r28, r24
     cc0:	ee 89       	ldd	r30, Y+22	; 0x16
     cc2:	ff 89       	ldd	r31, Y+23	; 0x17
     cc4:	10 81       	ld	r17, Z
     cc6:	8e 85       	ldd	r24, Y+14	; 0x0e
     cc8:	9f 85       	ldd	r25, Y+15	; 0x0f
     cca:	61 2f       	mov	r22, r17
     ccc:	0e 94 b2 0b 	call	0x1764	; 0x1764 <_ZN14MHV_RingBuffer6appendEc>
     cd0:	8e 8d       	ldd	r24, Y+30	; 0x1e
     cd2:	88 23       	and	r24, r24
     cd4:	79 f0       	breq	.+30     	; 0xcf4 <_ZN18MHV_HardwareSerial2rxEv+0x3c>
     cd6:	ea 89       	ldd	r30, Y+18	; 0x12
     cd8:	fb 89       	ldd	r31, Y+19	; 0x13
     cda:	80 81       	ld	r24, Z
     cdc:	90 e0       	ldi	r25, 0x00	; 0
     cde:	0c 8c       	ldd	r0, Y+28	; 0x1c
     ce0:	02 c0       	rjmp	.+4      	; 0xce6 <_ZN18MHV_HardwareSerial2rxEv+0x2e>
     ce2:	95 95       	asr	r25
     ce4:	87 95       	ror	r24
     ce6:	0a 94       	dec	r0
     ce8:	e2 f7       	brpl	.-8      	; 0xce2 <_ZN18MHV_HardwareSerial2rxEv+0x2a>
     cea:	80 ff       	sbrs	r24, 0
     cec:	03 c0       	rjmp	.+6      	; 0xcf4 <_ZN18MHV_HardwareSerial2rxEv+0x3c>
     cee:	ee 89       	ldd	r30, Y+22	; 0x16
     cf0:	ff 89       	ldd	r31, Y+23	; 0x17
     cf2:	10 83       	st	Z, r17
     cf4:	df 91       	pop	r29
     cf6:	cf 91       	pop	r28
     cf8:	1f 91       	pop	r17
     cfa:	08 95       	ret

00000cfc <_ZN18MHV_HardwareSerial2txEv>:
     cfc:	cf 93       	push	r28
     cfe:	df 93       	push	r29
     d00:	ec 01       	movw	r28, r24
     d02:	0e 94 65 05 	call	0xaca	; 0xaca <_ZN13MHV_Device_TX13nextCharacterEv>
     d06:	2f ef       	ldi	r18, 0xFF	; 255
     d08:	8f 3f       	cpi	r24, 0xFF	; 255
     d0a:	92 07       	cpc	r25, r18
     d0c:	81 f4       	brne	.+32     	; 0xd2e <_ZN18MHV_HardwareSerial2txEv+0x32>
     d0e:	1d 86       	std	Y+13, r1	; 0x0d
     d10:	1c 86       	std	Y+12, r1	; 0x0c
     d12:	ec 89       	ldd	r30, Y+20	; 0x14
     d14:	fd 89       	ldd	r31, Y+21	; 0x15
     d16:	20 81       	ld	r18, Z
     d18:	81 e0       	ldi	r24, 0x01	; 1
     d1a:	90 e0       	ldi	r25, 0x00	; 0
     d1c:	0b 8c       	ldd	r0, Y+27	; 0x1b
     d1e:	02 c0       	rjmp	.+4      	; 0xd24 <_ZN18MHV_HardwareSerial2txEv+0x28>
     d20:	88 0f       	add	r24, r24
     d22:	99 1f       	adc	r25, r25
     d24:	0a 94       	dec	r0
     d26:	e2 f7       	brpl	.-8      	; 0xd20 <_ZN18MHV_HardwareSerial2txEv+0x24>
     d28:	80 95       	com	r24
     d2a:	82 23       	and	r24, r18
     d2c:	02 c0       	rjmp	.+4      	; 0xd32 <_ZN18MHV_HardwareSerial2txEv+0x36>
     d2e:	ee 89       	ldd	r30, Y+22	; 0x16
     d30:	ff 89       	ldd	r31, Y+23	; 0x17
     d32:	80 83       	st	Z, r24
     d34:	df 91       	pop	r29
     d36:	cf 91       	pop	r28
     d38:	08 95       	ret

00000d3a <_ZN18MHV_HardwareSerial8setSpeedEm>:
     d3a:	8f 92       	push	r8
     d3c:	9f 92       	push	r9
     d3e:	af 92       	push	r10
     d40:	bf 92       	push	r11
     d42:	cf 92       	push	r12
     d44:	df 92       	push	r13
     d46:	ef 92       	push	r14
     d48:	ff 92       	push	r15
     d4a:	0f 93       	push	r16
     d4c:	1f 93       	push	r17
     d4e:	cf 93       	push	r28
     d50:	df 93       	push	r29
     d52:	ec 01       	movw	r28, r24
     d54:	7a 01       	movw	r14, r20
     d56:	8b 01       	movw	r16, r22
     d58:	41 34       	cpi	r20, 0x41	; 65
     d5a:	82 e4       	ldi	r24, 0x42	; 66
     d5c:	58 07       	cpc	r21, r24
     d5e:	8f e0       	ldi	r24, 0x0F	; 15
     d60:	68 07       	cpc	r22, r24
     d62:	80 e0       	ldi	r24, 0x00	; 0
     d64:	78 07       	cpc	r23, r24
     d66:	08 f0       	brcs	.+2      	; 0xd6a <_ZN18MHV_HardwareSerial8setSpeedEm+0x30>
     d68:	75 c0       	rjmp	.+234    	; 0xe54 <_ZN18MHV_HardwareSerial8setSpeedEm+0x11a>
     d6a:	60 e8       	ldi	r22, 0x80	; 128
     d6c:	74 e8       	ldi	r23, 0x84	; 132
     d6e:	8e e1       	ldi	r24, 0x1E	; 30
     d70:	90 e0       	ldi	r25, 0x00	; 0
     d72:	a8 01       	movw	r20, r16
     d74:	97 01       	movw	r18, r14
     d76:	0e 94 04 0e 	call	0x1c08	; 0x1c08 <__udivmodsi4>
     d7a:	49 01       	movw	r8, r18
     d7c:	5a 01       	movw	r10, r20
     d7e:	60 e0       	ldi	r22, 0x00	; 0
     d80:	79 e0       	ldi	r23, 0x09	; 9
     d82:	8d e3       	ldi	r24, 0x3D	; 61
     d84:	90 e0       	ldi	r25, 0x00	; 0
     d86:	a8 01       	movw	r20, r16
     d88:	97 01       	movw	r18, r14
     d8a:	0e 94 04 0e 	call	0x1c08	; 0x1c08 <__udivmodsi4>
     d8e:	21 50       	subi	r18, 0x01	; 1
     d90:	30 40       	sbci	r19, 0x00	; 0
     d92:	40 40       	sbci	r20, 0x00	; 0
     d94:	50 40       	sbci	r21, 0x00	; 0
     d96:	56 95       	lsr	r21
     d98:	47 95       	ror	r20
     d9a:	37 95       	ror	r19
     d9c:	27 95       	ror	r18
     d9e:	2f 5f       	subi	r18, 0xFF	; 255
     da0:	3f 4f       	sbci	r19, 0xFF	; 255
     da2:	4f 4f       	sbci	r20, 0xFF	; 255
     da4:	5f 4f       	sbci	r21, 0xFF	; 255
     da6:	f3 e0       	ldi	r31, 0x03	; 3
     da8:	22 0f       	add	r18, r18
     daa:	33 1f       	adc	r19, r19
     dac:	44 1f       	adc	r20, r20
     dae:	55 1f       	adc	r21, r21
     db0:	fa 95       	dec	r31
     db2:	d1 f7       	brne	.-12     	; 0xda8 <_ZN18MHV_HardwareSerial8setSpeedEm+0x6e>
     db4:	60 e0       	ldi	r22, 0x00	; 0
     db6:	74 e2       	ldi	r23, 0x24	; 36
     db8:	84 ef       	ldi	r24, 0xF4	; 244
     dba:	90 e0       	ldi	r25, 0x00	; 0
     dbc:	0e 94 04 0e 	call	0x1c08	; 0x1c08 <__udivmodsi4>
     dc0:	ca 01       	movw	r24, r20
     dc2:	b9 01       	movw	r22, r18
     dc4:	2f ef       	ldi	r18, 0xFF	; 255
     dc6:	30 e0       	ldi	r19, 0x00	; 0
     dc8:	40 e0       	ldi	r20, 0x00	; 0
     dca:	50 e0       	ldi	r21, 0x00	; 0
     dcc:	0e 94 d1 0d 	call	0x1ba2	; 0x1ba2 <__mulsi3>
     dd0:	a8 01       	movw	r20, r16
     dd2:	97 01       	movw	r18, r14
     dd4:	0e 94 04 0e 	call	0x1c08	; 0x1c08 <__udivmodsi4>
     dd8:	ef ef       	ldi	r30, 0xFF	; 255
     dda:	ce 2e       	mov	r12, r30
     ddc:	d1 2c       	mov	r13, r1
     dde:	c2 1a       	sub	r12, r18
     de0:	d3 0a       	sbc	r13, r19
     de2:	d7 fe       	sbrs	r13, 7
     de4:	04 c0       	rjmp	.+8      	; 0xdee <_ZN18MHV_HardwareSerial8setSpeedEm+0xb4>
     de6:	d0 94       	com	r13
     de8:	c1 94       	neg	r12
     dea:	d1 08       	sbc	r13, r1
     dec:	d3 94       	inc	r13
     dee:	a5 01       	movw	r20, r10
     df0:	94 01       	movw	r18, r8
     df2:	21 50       	subi	r18, 0x01	; 1
     df4:	30 40       	sbci	r19, 0x00	; 0
     df6:	40 40       	sbci	r20, 0x00	; 0
     df8:	50 40       	sbci	r21, 0x00	; 0
     dfa:	56 95       	lsr	r21
     dfc:	47 95       	ror	r20
     dfe:	37 95       	ror	r19
     e00:	27 95       	ror	r18
     e02:	2f 5f       	subi	r18, 0xFF	; 255
     e04:	3f 4f       	sbci	r19, 0xFF	; 255
     e06:	4f 4f       	sbci	r20, 0xFF	; 255
     e08:	5f 4f       	sbci	r21, 0xFF	; 255
     e0a:	64 e0       	ldi	r22, 0x04	; 4
     e0c:	22 0f       	add	r18, r18
     e0e:	33 1f       	adc	r19, r19
     e10:	44 1f       	adc	r20, r20
     e12:	55 1f       	adc	r21, r21
     e14:	6a 95       	dec	r22
     e16:	d1 f7       	brne	.-12     	; 0xe0c <_ZN18MHV_HardwareSerial8setSpeedEm+0xd2>
     e18:	60 e0       	ldi	r22, 0x00	; 0
     e1a:	74 e2       	ldi	r23, 0x24	; 36
     e1c:	84 ef       	ldi	r24, 0xF4	; 244
     e1e:	90 e0       	ldi	r25, 0x00	; 0
     e20:	0e 94 04 0e 	call	0x1c08	; 0x1c08 <__udivmodsi4>
     e24:	ca 01       	movw	r24, r20
     e26:	b9 01       	movw	r22, r18
     e28:	2f ef       	ldi	r18, 0xFF	; 255
     e2a:	30 e0       	ldi	r19, 0x00	; 0
     e2c:	40 e0       	ldi	r20, 0x00	; 0
     e2e:	50 e0       	ldi	r21, 0x00	; 0
     e30:	0e 94 d1 0d 	call	0x1ba2	; 0x1ba2 <__mulsi3>
     e34:	a8 01       	movw	r20, r16
     e36:	97 01       	movw	r18, r14
     e38:	0e 94 04 0e 	call	0x1c08	; 0x1c08 <__udivmodsi4>
     e3c:	8f ef       	ldi	r24, 0xFF	; 255
     e3e:	90 e0       	ldi	r25, 0x00	; 0
     e40:	82 1b       	sub	r24, r18
     e42:	93 0b       	sbc	r25, r19
     e44:	97 ff       	sbrs	r25, 7
     e46:	03 c0       	rjmp	.+6      	; 0xe4e <_ZN18MHV_HardwareSerial8setSpeedEm+0x114>
     e48:	90 95       	com	r25
     e4a:	81 95       	neg	r24
     e4c:	9f 4f       	sbci	r25, 0xFF	; 255
     e4e:	c8 16       	cp	r12, r24
     e50:	d9 06       	cpc	r13, r25
     e52:	ec f4       	brge	.+58     	; 0xe8e <_ZN18MHV_HardwareSerial8setSpeedEm+0x154>
     e54:	ea 89       	ldd	r30, Y+18	; 0x12
     e56:	fb 89       	ldd	r31, Y+19	; 0x13
     e58:	81 e0       	ldi	r24, 0x01	; 1
     e5a:	90 e0       	ldi	r25, 0x00	; 0
     e5c:	0d 8c       	ldd	r0, Y+29	; 0x1d
     e5e:	02 c0       	rjmp	.+4      	; 0xe64 <_ZN18MHV_HardwareSerial8setSpeedEm+0x12a>
     e60:	88 0f       	add	r24, r24
     e62:	99 1f       	adc	r25, r25
     e64:	0a 94       	dec	r0
     e66:	e2 f7       	brpl	.-8      	; 0xe60 <_ZN18MHV_HardwareSerial8setSpeedEm+0x126>
     e68:	80 83       	st	Z, r24
     e6a:	c8 88       	ldd	r12, Y+16	; 0x10
     e6c:	d9 88       	ldd	r13, Y+17	; 0x11
     e6e:	60 e0       	ldi	r22, 0x00	; 0
     e70:	79 e0       	ldi	r23, 0x09	; 9
     e72:	8d e3       	ldi	r24, 0x3D	; 61
     e74:	90 e0       	ldi	r25, 0x00	; 0
     e76:	a8 01       	movw	r20, r16
     e78:	97 01       	movw	r18, r14
     e7a:	0e 94 04 0e 	call	0x1c08	; 0x1c08 <__udivmodsi4>
     e7e:	21 50       	subi	r18, 0x01	; 1
     e80:	30 40       	sbci	r19, 0x00	; 0
     e82:	36 95       	lsr	r19
     e84:	27 95       	ror	r18
     e86:	f6 01       	movw	r30, r12
     e88:	31 83       	std	Z+1, r19	; 0x01
     e8a:	20 83       	st	Z, r18
     e8c:	0c c0       	rjmp	.+24     	; 0xea6 <_ZN18MHV_HardwareSerial8setSpeedEm+0x16c>
     e8e:	ea 89       	ldd	r30, Y+18	; 0x12
     e90:	fb 89       	ldd	r31, Y+19	; 0x13
     e92:	10 82       	st	Z, r1
     e94:	e8 89       	ldd	r30, Y+16	; 0x10
     e96:	f9 89       	ldd	r31, Y+17	; 0x11
     e98:	08 94       	sec
     e9a:	81 08       	sbc	r8, r1
     e9c:	91 08       	sbc	r9, r1
     e9e:	96 94       	lsr	r9
     ea0:	87 94       	ror	r8
     ea2:	91 82       	std	Z+1, r9	; 0x01
     ea4:	80 82       	st	Z, r8
     ea6:	ec 89       	ldd	r30, Y+20	; 0x14
     ea8:	fd 89       	ldd	r31, Y+21	; 0x15
     eaa:	60 81       	ld	r22, Z
     eac:	81 e0       	ldi	r24, 0x01	; 1
     eae:	90 e0       	ldi	r25, 0x00	; 0
     eb0:	ac 01       	movw	r20, r24
     eb2:	08 8c       	ldd	r0, Y+24	; 0x18
     eb4:	02 c0       	rjmp	.+4      	; 0xeba <_ZN18MHV_HardwareSerial8setSpeedEm+0x180>
     eb6:	44 0f       	add	r20, r20
     eb8:	55 1f       	adc	r21, r21
     eba:	0a 94       	dec	r0
     ebc:	e2 f7       	brpl	.-8      	; 0xeb6 <_ZN18MHV_HardwareSerial8setSpeedEm+0x17c>
     ebe:	9c 01       	movw	r18, r24
     ec0:	09 8c       	ldd	r0, Y+25	; 0x19
     ec2:	02 c0       	rjmp	.+4      	; 0xec8 <_ZN18MHV_HardwareSerial8setSpeedEm+0x18e>
     ec4:	22 0f       	add	r18, r18
     ec6:	33 1f       	adc	r19, r19
     ec8:	0a 94       	dec	r0
     eca:	e2 f7       	brpl	.-8      	; 0xec4 <_ZN18MHV_HardwareSerial8setSpeedEm+0x18a>
     ecc:	24 2b       	or	r18, r20
     ece:	26 2b       	or	r18, r22
     ed0:	0a 8c       	ldd	r0, Y+26	; 0x1a
     ed2:	02 c0       	rjmp	.+4      	; 0xed8 <_ZN18MHV_HardwareSerial8setSpeedEm+0x19e>
     ed4:	88 0f       	add	r24, r24
     ed6:	99 1f       	adc	r25, r25
     ed8:	0a 94       	dec	r0
     eda:	e2 f7       	brpl	.-8      	; 0xed4 <_ZN18MHV_HardwareSerial8setSpeedEm+0x19a>
     edc:	28 2b       	or	r18, r24
     ede:	20 83       	st	Z, r18
     ee0:	df 91       	pop	r29
     ee2:	cf 91       	pop	r28
     ee4:	1f 91       	pop	r17
     ee6:	0f 91       	pop	r16
     ee8:	ff 90       	pop	r15
     eea:	ef 90       	pop	r14
     eec:	df 90       	pop	r13
     eee:	cf 90       	pop	r12
     ef0:	bf 90       	pop	r11
     ef2:	af 90       	pop	r10
     ef4:	9f 90       	pop	r9
     ef6:	8f 90       	pop	r8
     ef8:	08 95       	ret

00000efa <_ZN18MHV_HardwareSerialC1EP14MHV_RingBufferS1_PVjPVhS5_S5_hhhhhhm>:
     efa:	2f 92       	push	r2
     efc:	3f 92       	push	r3
     efe:	4f 92       	push	r4
     f00:	5f 92       	push	r5
     f02:	6f 92       	push	r6
     f04:	7f 92       	push	r7
     f06:	8f 92       	push	r8
     f08:	af 92       	push	r10
     f0a:	cf 92       	push	r12
     f0c:	df 92       	push	r13
     f0e:	ef 92       	push	r14
     f10:	ff 92       	push	r15
     f12:	0f 93       	push	r16
     f14:	1f 93       	push	r17
     f16:	df 93       	push	r29
     f18:	cf 93       	push	r28
     f1a:	cd b7       	in	r28, 0x3d	; 61
     f1c:	de b7       	in	r29, 0x3e	; 62
     f1e:	3c 01       	movw	r6, r24
     f20:	1b 01       	movw	r2, r22
     f22:	ba 01       	movw	r22, r20
     f24:	29 01       	movw	r4, r18
     f26:	0e 94 35 05 	call	0xa6a	; 0xa6a <_ZN13MHV_Device_TXC1EP14MHV_RingBuffer>
     f2a:	c3 01       	movw	r24, r6
     f2c:	0e 96       	adiw	r24, 0x0e	; 14
     f2e:	b1 01       	movw	r22, r2
     f30:	0e 94 b8 04 	call	0x970	; 0x970 <_ZN13MHV_Device_RXC1EP14MHV_RingBuffer>
     f34:	8a e0       	ldi	r24, 0x0A	; 10
     f36:	92 e0       	ldi	r25, 0x02	; 2
     f38:	f3 01       	movw	r30, r6
     f3a:	91 83       	std	Z+1, r25	; 0x01
     f3c:	80 83       	st	Z, r24
     f3e:	16 8e       	std	Z+30, r1	; 0x1e
     f40:	51 8a       	std	Z+17, r5	; 0x11
     f42:	40 8a       	std	Z+16, r4	; 0x10
     f44:	13 8b       	std	Z+19, r17	; 0x13
     f46:	02 8b       	std	Z+18, r16	; 0x12
     f48:	f5 8a       	std	Z+21, r15	; 0x15
     f4a:	e4 8a       	std	Z+20, r14	; 0x14
     f4c:	d7 8a       	std	Z+23, r13	; 0x17
     f4e:	c6 8a       	std	Z+22, r12	; 0x16
     f50:	a0 8e       	std	Z+24, r10	; 0x18
     f52:	81 8e       	std	Z+25, r8	; 0x19
     f54:	8b 89       	ldd	r24, Y+19	; 0x13
     f56:	82 8f       	std	Z+26, r24	; 0x1a
     f58:	8c 89       	ldd	r24, Y+20	; 0x14
     f5a:	83 8f       	std	Z+27, r24	; 0x1b
     f5c:	8d 89       	ldd	r24, Y+21	; 0x15
     f5e:	84 8f       	std	Z+28, r24	; 0x1c
     f60:	8e 89       	ldd	r24, Y+22	; 0x16
     f62:	85 8f       	std	Z+29, r24	; 0x1d
     f64:	15 86       	std	Z+13, r1	; 0x0d
     f66:	14 86       	std	Z+12, r1	; 0x0c
     f68:	c3 01       	movw	r24, r6
     f6a:	4f 89       	ldd	r20, Y+23	; 0x17
     f6c:	58 8d       	ldd	r21, Y+24	; 0x18
     f6e:	69 8d       	ldd	r22, Y+25	; 0x19
     f70:	7a 8d       	ldd	r23, Y+26	; 0x1a
     f72:	0e 94 9d 06 	call	0xd3a	; 0xd3a <_ZN18MHV_HardwareSerial8setSpeedEm>
     f76:	cf 91       	pop	r28
     f78:	df 91       	pop	r29
     f7a:	1f 91       	pop	r17
     f7c:	0f 91       	pop	r16
     f7e:	ff 90       	pop	r15
     f80:	ef 90       	pop	r14
     f82:	df 90       	pop	r13
     f84:	cf 90       	pop	r12
     f86:	af 90       	pop	r10
     f88:	8f 90       	pop	r8
     f8a:	7f 90       	pop	r7
     f8c:	6f 90       	pop	r6
     f8e:	5f 90       	pop	r5
     f90:	4f 90       	pop	r4
     f92:	3f 90       	pop	r3
     f94:	2f 90       	pop	r2
     f96:	08 95       	ret

00000f98 <_ZN18MHV_HardwareSerial4echoEb>:
     f98:	fc 01       	movw	r30, r24
     f9a:	66 8f       	std	Z+30, r22	; 0x1e
     f9c:	08 95       	ret

00000f9e <_Z21mhv_timestampLessThanP13mhv_timestampS0_>:
     f9e:	ef 92       	push	r14
     fa0:	ff 92       	push	r15
     fa2:	0f 93       	push	r16
     fa4:	1f 93       	push	r17
     fa6:	fc 01       	movw	r30, r24
     fa8:	db 01       	movw	r26, r22
     faa:	e0 80       	ld	r14, Z
     fac:	f1 80       	ldd	r15, Z+1	; 0x01
     fae:	02 81       	ldd	r16, Z+2	; 0x02
     fb0:	13 81       	ldd	r17, Z+3	; 0x03
     fb2:	2d 91       	ld	r18, X+
     fb4:	3d 91       	ld	r19, X+
     fb6:	4d 91       	ld	r20, X+
     fb8:	5c 91       	ld	r21, X
     fba:	13 97       	sbiw	r26, 0x03	; 3
     fbc:	e2 16       	cp	r14, r18
     fbe:	f3 06       	cpc	r15, r19
     fc0:	04 07       	cpc	r16, r20
     fc2:	15 07       	cpc	r17, r21
     fc4:	80 f0       	brcs	.+32     	; 0xfe6 <_Z21mhv_timestampLessThanP13mhv_timestampS0_+0x48>
     fc6:	e2 16       	cp	r14, r18
     fc8:	f3 06       	cpc	r15, r19
     fca:	04 07       	cpc	r16, r20
     fcc:	15 07       	cpc	r17, r21
     fce:	69 f4       	brne	.+26     	; 0xfea <_Z21mhv_timestampLessThanP13mhv_timestampS0_+0x4c>
     fd0:	81 e0       	ldi	r24, 0x01	; 1
     fd2:	44 81       	ldd	r20, Z+4	; 0x04
     fd4:	55 81       	ldd	r21, Z+5	; 0x05
     fd6:	14 96       	adiw	r26, 0x04	; 4
     fd8:	2d 91       	ld	r18, X+
     fda:	3c 91       	ld	r19, X
     fdc:	15 97       	sbiw	r26, 0x05	; 5
     fde:	42 17       	cp	r20, r18
     fe0:	53 07       	cpc	r21, r19
     fe2:	20 f0       	brcs	.+8      	; 0xfec <_Z21mhv_timestampLessThanP13mhv_timestampS0_+0x4e>
     fe4:	02 c0       	rjmp	.+4      	; 0xfea <_Z21mhv_timestampLessThanP13mhv_timestampS0_+0x4c>
     fe6:	81 e0       	ldi	r24, 0x01	; 1
     fe8:	01 c0       	rjmp	.+2      	; 0xfec <_Z21mhv_timestampLessThanP13mhv_timestampS0_+0x4e>
     fea:	80 e0       	ldi	r24, 0x00	; 0
     fec:	1f 91       	pop	r17
     fee:	0f 91       	pop	r16
     ff0:	ff 90       	pop	r15
     ff2:	ef 90       	pop	r14
     ff4:	08 95       	ret

00000ff6 <_Z31mhv_timestampGreaterThanOrEqualP13mhv_timestampS0_>:
     ff6:	ef 92       	push	r14
     ff8:	ff 92       	push	r15
     ffa:	0f 93       	push	r16
     ffc:	1f 93       	push	r17
     ffe:	fc 01       	movw	r30, r24
    1000:	db 01       	movw	r26, r22
    1002:	e0 80       	ld	r14, Z
    1004:	f1 80       	ldd	r15, Z+1	; 0x01
    1006:	02 81       	ldd	r16, Z+2	; 0x02
    1008:	13 81       	ldd	r17, Z+3	; 0x03
    100a:	2d 91       	ld	r18, X+
    100c:	3d 91       	ld	r19, X+
    100e:	4d 91       	ld	r20, X+
    1010:	5c 91       	ld	r21, X
    1012:	13 97       	sbiw	r26, 0x03	; 3
    1014:	2e 15       	cp	r18, r14
    1016:	3f 05       	cpc	r19, r15
    1018:	40 07       	cpc	r20, r16
    101a:	51 07       	cpc	r21, r17
    101c:	80 f0       	brcs	.+32     	; 0x103e <_Z31mhv_timestampGreaterThanOrEqualP13mhv_timestampS0_+0x48>
    101e:	e2 16       	cp	r14, r18
    1020:	f3 06       	cpc	r15, r19
    1022:	04 07       	cpc	r16, r20
    1024:	15 07       	cpc	r17, r21
    1026:	69 f4       	brne	.+26     	; 0x1042 <_Z31mhv_timestampGreaterThanOrEqualP13mhv_timestampS0_+0x4c>
    1028:	81 e0       	ldi	r24, 0x01	; 1
    102a:	44 81       	ldd	r20, Z+4	; 0x04
    102c:	55 81       	ldd	r21, Z+5	; 0x05
    102e:	14 96       	adiw	r26, 0x04	; 4
    1030:	2d 91       	ld	r18, X+
    1032:	3c 91       	ld	r19, X
    1034:	15 97       	sbiw	r26, 0x05	; 5
    1036:	42 17       	cp	r20, r18
    1038:	53 07       	cpc	r21, r19
    103a:	20 f4       	brcc	.+8      	; 0x1044 <_Z31mhv_timestampGreaterThanOrEqualP13mhv_timestampS0_+0x4e>
    103c:	02 c0       	rjmp	.+4      	; 0x1042 <_Z31mhv_timestampGreaterThanOrEqualP13mhv_timestampS0_+0x4c>
    103e:	81 e0       	ldi	r24, 0x01	; 1
    1040:	01 c0       	rjmp	.+2      	; 0x1044 <_Z31mhv_timestampGreaterThanOrEqualP13mhv_timestampS0_+0x4e>
    1042:	80 e0       	ldi	r24, 0x00	; 0
    1044:	1f 91       	pop	r17
    1046:	0f 91       	pop	r16
    1048:	ff 90       	pop	r15
    104a:	ef 90       	pop	r14
    104c:	08 95       	ret

0000104e <_Z14mhv_isLeapYearj>:
    104e:	9c 01       	movw	r18, r24
    1050:	83 70       	andi	r24, 0x03	; 3
    1052:	90 70       	andi	r25, 0x00	; 0
    1054:	00 97       	sbiw	r24, 0x00	; 0
    1056:	39 f4       	brne	.+14     	; 0x1066 <_Z14mhv_isLeapYearj+0x18>
    1058:	c9 01       	movw	r24, r18
    105a:	64 e6       	ldi	r22, 0x64	; 100
    105c:	70 e0       	ldi	r23, 0x00	; 0
    105e:	0e 94 f0 0d 	call	0x1be0	; 0x1be0 <__udivmodhi4>
    1062:	00 97       	sbiw	r24, 0x00	; 0
    1064:	61 f4       	brne	.+24     	; 0x107e <_Z14mhv_isLeapYearj+0x30>
    1066:	c9 01       	movw	r24, r18
    1068:	60 e9       	ldi	r22, 0x90	; 144
    106a:	71 e0       	ldi	r23, 0x01	; 1
    106c:	0e 94 f0 0d 	call	0x1be0	; 0x1be0 <__udivmodhi4>
    1070:	9c 01       	movw	r18, r24
    1072:	81 e0       	ldi	r24, 0x01	; 1
    1074:	21 15       	cp	r18, r1
    1076:	31 05       	cpc	r19, r1
    1078:	19 f0       	breq	.+6      	; 0x1080 <_Z14mhv_isLeapYearj+0x32>
    107a:	80 e0       	ldi	r24, 0x00	; 0
    107c:	08 95       	ret
    107e:	81 e0       	ldi	r24, 0x01	; 1
    1080:	08 95       	ret

00001082 <_Z15mhv_daysInMonth9mhv_monthj>:
    1082:	1f 93       	push	r17
    1084:	18 2f       	mov	r17, r24
    1086:	82 30       	cpi	r24, 0x02	; 2
    1088:	41 f4       	brne	.+16     	; 0x109a <_Z15mhv_daysInMonth9mhv_monthj+0x18>
    108a:	cb 01       	movw	r24, r22
    108c:	0e 94 27 08 	call	0x104e	; 0x104e <_Z14mhv_isLeapYearj>
    1090:	88 23       	and	r24, r24
    1092:	19 f0       	breq	.+6      	; 0x109a <_Z15mhv_daysInMonth9mhv_monthj+0x18>
    1094:	8d e1       	ldi	r24, 0x1D	; 29
    1096:	1f 91       	pop	r17
    1098:	08 95       	ret
    109a:	e1 2f       	mov	r30, r17
    109c:	f0 e0       	ldi	r31, 0x00	; 0
    109e:	e3 50       	subi	r30, 0x03	; 3
    10a0:	fd 4f       	sbci	r31, 0xFD	; 253
    10a2:	84 91       	lpm	r24, Z
    10a4:	f8 cf       	rjmp	.-16     	; 0x1096 <_Z15mhv_daysInMonth9mhv_monthj+0x14>

000010a6 <_ZN7MHV_RTCC1EP10MHV_Timer8P9mhv_eventhi>:
    10a6:	0f 93       	push	r16
    10a8:	1f 93       	push	r17
    10aa:	fc 01       	movw	r30, r24
    10ac:	71 83       	std	Z+1, r23	; 0x01
    10ae:	60 83       	st	Z, r22
    10b0:	14 86       	std	Z+12, r1	; 0x0c
    10b2:	81 e0       	ldi	r24, 0x01	; 1
    10b4:	85 87       	std	Z+13, r24	; 0x0d
    10b6:	17 87       	std	Z+15, r17	; 0x0f
    10b8:	06 87       	std	Z+14, r16	; 0x0e
    10ba:	a4 2f       	mov	r26, r20
    10bc:	b5 2f       	mov	r27, r21
    10be:	80 e0       	ldi	r24, 0x00	; 0
    10c0:	90 e0       	ldi	r25, 0x00	; 0
    10c2:	62 2f       	mov	r22, r18
    10c4:	70 e0       	ldi	r23, 0x00	; 0
    10c6:	0f c0       	rjmp	.+30     	; 0x10e6 <_ZN7MHV_RTCC1EP10MHV_Timer8P9mhv_eventhi+0x40>
    10c8:	1d 92       	st	X+, r1
    10ca:	1d 92       	st	X+, r1
    10cc:	1d 92       	st	X+, r1
    10ce:	1c 92       	st	X, r1
    10d0:	13 97       	sbiw	r26, 0x03	; 3
    10d2:	15 96       	adiw	r26, 0x05	; 5
    10d4:	1c 92       	st	X, r1
    10d6:	1e 92       	st	-X, r1
    10d8:	14 97       	sbiw	r26, 0x04	; 4
    10da:	17 96       	adiw	r26, 0x07	; 7
    10dc:	1c 92       	st	X, r1
    10de:	1e 92       	st	-X, r1
    10e0:	16 97       	sbiw	r26, 0x06	; 6
    10e2:	01 96       	adiw	r24, 0x01	; 1
    10e4:	1a 96       	adiw	r26, 0x0a	; 10
    10e6:	86 17       	cp	r24, r22
    10e8:	97 07       	cpc	r25, r23
    10ea:	74 f3       	brlt	.-36     	; 0x10c8 <_ZN7MHV_RTCC1EP10MHV_Timer8P9mhv_eventhi+0x22>
    10ec:	42 83       	std	Z+2, r20	; 0x02
    10ee:	53 83       	std	Z+3, r21	; 0x03
    10f0:	25 83       	std	Z+5, r18	; 0x05
    10f2:	14 82       	std	Z+4, r1	; 0x04
    10f4:	1f 91       	pop	r17
    10f6:	0f 91       	pop	r16
    10f8:	08 95       	ret

000010fa <_ZN7MHV_RTC7setTimeEP13mhv_timestamp>:
    10fa:	fc 01       	movw	r30, r24
    10fc:	db 01       	movw	r26, r22
    10fe:	14 96       	adiw	r26, 0x04	; 4
    1100:	8d 91       	ld	r24, X+
    1102:	9c 91       	ld	r25, X
    1104:	15 97       	sbiw	r26, 0x05	; 5
    1106:	93 87       	std	Z+11, r25	; 0x0b
    1108:	82 87       	std	Z+10, r24	; 0x0a
    110a:	2d 91       	ld	r18, X+
    110c:	3d 91       	ld	r19, X+
    110e:	4d 91       	ld	r20, X+
    1110:	5c 91       	ld	r21, X
    1112:	13 97       	sbiw	r26, 0x03	; 3
    1114:	26 83       	std	Z+6, r18	; 0x06
    1116:	37 83       	std	Z+7, r19	; 0x07
    1118:	40 87       	std	Z+8, r20	; 0x08
    111a:	51 87       	std	Z+9, r21	; 0x09
    111c:	08 95       	ret

0000111e <_ZN7MHV_RTC7tick1msEv>:
    111e:	fc 01       	movw	r30, r24
    1120:	82 85       	ldd	r24, Z+10	; 0x0a
    1122:	93 85       	ldd	r25, Z+11	; 0x0b
    1124:	01 96       	adiw	r24, 0x01	; 1
    1126:	93 87       	std	Z+11, r25	; 0x0b
    1128:	82 87       	std	Z+10, r24	; 0x0a
    112a:	23 e0       	ldi	r18, 0x03	; 3
    112c:	88 3e       	cpi	r24, 0xE8	; 232
    112e:	92 07       	cpc	r25, r18
    1130:	70 f0       	brcs	.+28     	; 0x114e <_ZN7MHV_RTC7tick1msEv+0x30>
    1132:	13 86       	std	Z+11, r1	; 0x0b
    1134:	12 86       	std	Z+10, r1	; 0x0a
    1136:	26 81       	ldd	r18, Z+6	; 0x06
    1138:	37 81       	ldd	r19, Z+7	; 0x07
    113a:	40 85       	ldd	r20, Z+8	; 0x08
    113c:	51 85       	ldd	r21, Z+9	; 0x09
    113e:	2f 5f       	subi	r18, 0xFF	; 255
    1140:	3f 4f       	sbci	r19, 0xFF	; 255
    1142:	4f 4f       	sbci	r20, 0xFF	; 255
    1144:	5f 4f       	sbci	r21, 0xFF	; 255
    1146:	26 83       	std	Z+6, r18	; 0x06
    1148:	37 83       	std	Z+7, r19	; 0x07
    114a:	40 87       	std	Z+8, r20	; 0x08
    114c:	51 87       	std	Z+9, r21	; 0x09
    114e:	08 95       	ret

00001150 <_ZN7MHV_RTC7currentEP13mhv_timestamp>:
    1150:	cf 93       	push	r28
    1152:	df 93       	push	r29
    1154:	fc 01       	movw	r30, r24
    1156:	eb 01       	movw	r28, r22
    1158:	82 85       	ldd	r24, Z+10	; 0x0a
    115a:	93 85       	ldd	r25, Z+11	; 0x0b
    115c:	9d 83       	std	Y+5, r25	; 0x05
    115e:	8c 83       	std	Y+4, r24	; 0x04
    1160:	86 81       	ldd	r24, Z+6	; 0x06
    1162:	97 81       	ldd	r25, Z+7	; 0x07
    1164:	a0 85       	ldd	r26, Z+8	; 0x08
    1166:	b1 85       	ldd	r27, Z+9	; 0x09
    1168:	88 83       	st	Y, r24
    116a:	99 83       	std	Y+1, r25	; 0x01
    116c:	aa 83       	std	Y+2, r26	; 0x02
    116e:	bb 83       	std	Y+3, r27	; 0x03
    1170:	df 91       	pop	r29
    1172:	cf 91       	pop	r28
    1174:	08 95       	ret

00001176 <_ZN7MHV_RTC6toTimeEP8mhv_timeP13mhv_timestamp>:
    1176:	6f 92       	push	r6
    1178:	7f 92       	push	r7
    117a:	8f 92       	push	r8
    117c:	9f 92       	push	r9
    117e:	af 92       	push	r10
    1180:	bf 92       	push	r11
    1182:	cf 92       	push	r12
    1184:	df 92       	push	r13
    1186:	ef 92       	push	r14
    1188:	ff 92       	push	r15
    118a:	0f 93       	push	r16
    118c:	1f 93       	push	r17
    118e:	cf 93       	push	r28
    1190:	df 93       	push	r29
    1192:	eb 01       	movw	r28, r22
    1194:	5a 01       	movw	r10, r20
    1196:	dc 01       	movw	r26, r24
    1198:	1e 96       	adiw	r26, 0x0e	; 14
    119a:	2d 91       	ld	r18, X+
    119c:	3c 91       	ld	r19, X
    119e:	1f 97       	sbiw	r26, 0x0f	; 15
    11a0:	79 01       	movw	r14, r18
    11a2:	00 27       	eor	r16, r16
    11a4:	f7 fc       	sbrc	r15, 7
    11a6:	00 95       	com	r16
    11a8:	10 2f       	mov	r17, r16
    11aa:	fa 01       	movw	r30, r20
    11ac:	80 81       	ld	r24, Z
    11ae:	91 81       	ldd	r25, Z+1	; 0x01
    11b0:	a2 81       	ldd	r26, Z+2	; 0x02
    11b2:	b3 81       	ldd	r27, Z+3	; 0x03
    11b4:	e8 0e       	add	r14, r24
    11b6:	f9 1e       	adc	r15, r25
    11b8:	0a 1f       	adc	r16, r26
    11ba:	1b 1f       	adc	r17, r27
    11bc:	3c 87       	std	Y+12, r19	; 0x0c
    11be:	2b 87       	std	Y+11, r18	; 0x0b
    11c0:	80 e8       	ldi	r24, 0x80	; 128
    11c2:	93 e3       	ldi	r25, 0x33	; 51
    11c4:	a1 ee       	ldi	r26, 0xE1	; 225
    11c6:	b1 e0       	ldi	r27, 0x01	; 1
    11c8:	22 eb       	ldi	r18, 0xB2	; 178
    11ca:	c2 2e       	mov	r12, r18
    11cc:	27 e0       	ldi	r18, 0x07	; 7
    11ce:	d2 2e       	mov	r13, r18
    11d0:	15 c0       	rjmp	.+42     	; 0x11fc <_ZN7MHV_RTC6toTimeEP8mhv_timeP13mhv_timestamp+0x86>
    11d2:	e8 1a       	sub	r14, r24
    11d4:	f9 0a       	sbc	r15, r25
    11d6:	0a 0b       	sbc	r16, r26
    11d8:	1b 0b       	sbc	r17, r27
    11da:	08 94       	sec
    11dc:	c1 1c       	adc	r12, r1
    11de:	d1 1c       	adc	r13, r1
    11e0:	c6 01       	movw	r24, r12
    11e2:	0e 94 27 08 	call	0x104e	; 0x104e <_Z14mhv_isLeapYearj>
    11e6:	88 23       	and	r24, r24
    11e8:	29 f0       	breq	.+10     	; 0x11f4 <_ZN7MHV_RTC6toTimeEP8mhv_timeP13mhv_timestamp+0x7e>
    11ea:	80 e0       	ldi	r24, 0x00	; 0
    11ec:	95 e8       	ldi	r25, 0x85	; 133
    11ee:	a2 ee       	ldi	r26, 0xE2	; 226
    11f0:	b1 e0       	ldi	r27, 0x01	; 1
    11f2:	04 c0       	rjmp	.+8      	; 0x11fc <_ZN7MHV_RTC6toTimeEP8mhv_timeP13mhv_timestamp+0x86>
    11f4:	80 e8       	ldi	r24, 0x80	; 128
    11f6:	93 e3       	ldi	r25, 0x33	; 51
    11f8:	a1 ee       	ldi	r26, 0xE1	; 225
    11fa:	b1 e0       	ldi	r27, 0x01	; 1
    11fc:	8e 15       	cp	r24, r14
    11fe:	9f 05       	cpc	r25, r15
    1200:	a0 07       	cpc	r26, r16
    1202:	b1 07       	cpc	r27, r17
    1204:	30 f3       	brcs	.-52     	; 0x11d2 <_ZN7MHV_RTC6toTimeEP8mhv_timeP13mhv_timestamp+0x5c>
    1206:	d8 86       	std	Y+8, r13	; 0x08
    1208:	cf 82       	std	Y+7, r12	; 0x07
    120a:	c6 01       	movw	r24, r12
    120c:	0e 94 27 08 	call	0x104e	; 0x104e <_Z14mhv_isLeapYearj>
    1210:	d8 2e       	mov	r13, r24
    1212:	20 e0       	ldi	r18, 0x00	; 0
    1214:	30 e0       	ldi	r19, 0x00	; 0
    1216:	c2 2e       	mov	r12, r18
    1218:	f9 01       	movw	r30, r18
    121a:	ee 0f       	add	r30, r30
    121c:	ff 1f       	adc	r31, r31
    121e:	ee 0f       	add	r30, r30
    1220:	ff 1f       	adc	r31, r31
    1222:	dd 20       	and	r13, r13
    1224:	b9 f0       	breq	.+46     	; 0x1254 <_ZN7MHV_RTC6toTimeEP8mhv_timeP13mhv_timestamp+0xde>
    1226:	e2 53       	subi	r30, 0x32	; 50
    1228:	fd 4f       	sbci	r31, 0xFD	; 253
    122a:	21 30       	cpi	r18, 0x01	; 1
    122c:	19 f0       	breq	.+6      	; 0x1234 <_ZN7MHV_RTC6toTimeEP8mhv_timeP13mhv_timestamp+0xbe>
    122e:	80 e0       	ldi	r24, 0x00	; 0
    1230:	90 e0       	ldi	r25, 0x00	; 0
    1232:	02 c0       	rjmp	.+4      	; 0x1238 <_ZN7MHV_RTC6toTimeEP8mhv_timeP13mhv_timestamp+0xc2>
    1234:	84 e0       	ldi	r24, 0x04	; 4
    1236:	90 e0       	ldi	r25, 0x00	; 0
    1238:	8e 0f       	add	r24, r30
    123a:	9f 1f       	adc	r25, r31
    123c:	00 97       	sbiw	r24, 0x00	; 0
    123e:	19 f0       	breq	.+6      	; 0x1246 <_ZN7MHV_RTC6toTimeEP8mhv_timeP13mhv_timestamp+0xd0>
    1240:	e0 e8       	ldi	r30, 0x80	; 128
    1242:	f1 e5       	ldi	r31, 0x51	; 81
    1244:	02 c0       	rjmp	.+4      	; 0x124a <_ZN7MHV_RTC6toTimeEP8mhv_timeP13mhv_timestamp+0xd4>
    1246:	e0 e0       	ldi	r30, 0x00	; 0
    1248:	f0 e0       	ldi	r31, 0x00	; 0
    124a:	85 91       	lpm	r24, Z+
    124c:	95 91       	lpm	r25, Z+
    124e:	a5 91       	lpm	r26, Z+
    1250:	b4 91       	lpm	r27, Z
    1252:	06 c0       	rjmp	.+12     	; 0x1260 <_ZN7MHV_RTC6toTimeEP8mhv_timeP13mhv_timestamp+0xea>
    1254:	e2 53       	subi	r30, 0x32	; 50
    1256:	fd 4f       	sbci	r31, 0xFD	; 253
    1258:	85 91       	lpm	r24, Z+
    125a:	95 91       	lpm	r25, Z+
    125c:	a5 91       	lpm	r26, Z+
    125e:	b4 91       	lpm	r27, Z
    1260:	e8 16       	cp	r14, r24
    1262:	f9 06       	cpc	r15, r25
    1264:	0a 07       	cpc	r16, r26
    1266:	1b 07       	cpc	r17, r27
    1268:	30 f0       	brcs	.+12     	; 0x1276 <_ZN7MHV_RTC6toTimeEP8mhv_timeP13mhv_timestamp+0x100>
    126a:	c3 94       	inc	r12
    126c:	2f 5f       	subi	r18, 0xFF	; 255
    126e:	3f 4f       	sbci	r19, 0xFF	; 255
    1270:	20 33       	cpi	r18, 0x30	; 48
    1272:	31 05       	cpc	r19, r1
    1274:	81 f6       	brne	.-96     	; 0x1216 <_ZN7MHV_RTC6toTimeEP8mhv_timeP13mhv_timestamp+0xa0>
    1276:	c8 01       	movw	r24, r16
    1278:	b7 01       	movw	r22, r14
    127a:	20 e8       	ldi	r18, 0x80	; 128
    127c:	31 e5       	ldi	r19, 0x51	; 81
    127e:	41 e0       	ldi	r20, 0x01	; 1
    1280:	50 e0       	ldi	r21, 0x00	; 0
    1282:	0e 94 04 0e 	call	0x1c08	; 0x1c08 <__udivmodsi4>
    1286:	3a 87       	std	Y+10, r19	; 0x0a
    1288:	29 87       	std	Y+9, r18	; 0x09
    128a:	cc 20       	and	r12, r12
    128c:	81 f0       	breq	.+32     	; 0x12ae <_ZN7MHV_RTC6toTimeEP8mhv_timeP13mhv_timestamp+0x138>
    128e:	ec 2d       	mov	r30, r12
    1290:	f0 e0       	ldi	r31, 0x00	; 0
    1292:	ee 0f       	add	r30, r30
    1294:	ff 1f       	adc	r31, r31
    1296:	ee 0f       	add	r30, r30
    1298:	ff 1f       	adc	r31, r31
    129a:	e6 53       	subi	r30, 0x36	; 54
    129c:	fd 4f       	sbci	r31, 0xFD	; 253
    129e:	85 91       	lpm	r24, Z+
    12a0:	95 91       	lpm	r25, Z+
    12a2:	a5 91       	lpm	r26, Z+
    12a4:	b4 91       	lpm	r27, Z
    12a6:	e8 1a       	sub	r14, r24
    12a8:	f9 0a       	sbc	r15, r25
    12aa:	0a 0b       	sbc	r16, r26
    12ac:	1b 0b       	sbc	r17, r27
    12ae:	dd 20       	and	r13, r13
    12b0:	59 f0       	breq	.+22     	; 0x12c8 <_ZN7MHV_RTC6toTimeEP8mhv_timeP13mhv_timestamp+0x152>
    12b2:	9c 2d       	mov	r25, r12
    12b4:	92 30       	cpi	r25, 0x02	; 2
    12b6:	40 f0       	brcs	.+16     	; 0x12c8 <_ZN7MHV_RTC6toTimeEP8mhv_timeP13mhv_timestamp+0x152>
    12b8:	80 e8       	ldi	r24, 0x80	; 128
    12ba:	9e ea       	ldi	r25, 0xAE	; 174
    12bc:	ae ef       	ldi	r26, 0xFE	; 254
    12be:	bf ef       	ldi	r27, 0xFF	; 255
    12c0:	e8 0e       	add	r14, r24
    12c2:	f9 1e       	adc	r15, r25
    12c4:	0a 1f       	adc	r16, r26
    12c6:	1b 1f       	adc	r17, r27
    12c8:	c3 94       	inc	r12
    12ca:	ce 82       	std	Y+6, r12	; 0x06
    12cc:	c8 01       	movw	r24, r16
    12ce:	b7 01       	movw	r22, r14
    12d0:	20 e8       	ldi	r18, 0x80	; 128
    12d2:	31 e5       	ldi	r19, 0x51	; 81
    12d4:	41 e0       	ldi	r20, 0x01	; 1
    12d6:	50 e0       	ldi	r21, 0x00	; 0
    12d8:	0e 94 04 0e 	call	0x1c08	; 0x1c08 <__udivmodsi4>
    12dc:	c2 2e       	mov	r12, r18
    12de:	62 2f       	mov	r22, r18
    12e0:	73 2f       	mov	r23, r19
    12e2:	ca 01       	movw	r24, r20
    12e4:	20 e8       	ldi	r18, 0x80	; 128
    12e6:	31 e5       	ldi	r19, 0x51	; 81
    12e8:	41 e0       	ldi	r20, 0x01	; 1
    12ea:	50 e0       	ldi	r21, 0x00	; 0
    12ec:	0e 94 d1 0d 	call	0x1ba2	; 0x1ba2 <__mulsi3>
    12f0:	e6 1a       	sub	r14, r22
    12f2:	f7 0a       	sbc	r15, r23
    12f4:	08 0b       	sbc	r16, r24
    12f6:	19 0b       	sbc	r17, r25
    12f8:	c3 94       	inc	r12
    12fa:	cd 82       	std	Y+5, r12	; 0x05
    12fc:	c8 01       	movw	r24, r16
    12fe:	b7 01       	movw	r22, r14
    1300:	20 e1       	ldi	r18, 0x10	; 16
    1302:	3e e0       	ldi	r19, 0x0E	; 14
    1304:	40 e0       	ldi	r20, 0x00	; 0
    1306:	50 e0       	ldi	r21, 0x00	; 0
    1308:	0e 94 04 0e 	call	0x1c08	; 0x1c08 <__udivmodsi4>
    130c:	2c 83       	std	Y+4, r18	; 0x04
    130e:	b9 01       	movw	r22, r18
    1310:	ca 01       	movw	r24, r20
    1312:	20 e1       	ldi	r18, 0x10	; 16
    1314:	3e e0       	ldi	r19, 0x0E	; 14
    1316:	40 e0       	ldi	r20, 0x00	; 0
    1318:	50 e0       	ldi	r21, 0x00	; 0
    131a:	0e 94 d1 0d 	call	0x1ba2	; 0x1ba2 <__mulsi3>
    131e:	e6 1a       	sub	r14, r22
    1320:	f7 0a       	sbc	r15, r23
    1322:	08 0b       	sbc	r16, r24
    1324:	19 0b       	sbc	r17, r25
    1326:	c8 01       	movw	r24, r16
    1328:	b7 01       	movw	r22, r14
    132a:	2c e3       	ldi	r18, 0x3C	; 60
    132c:	30 e0       	ldi	r19, 0x00	; 0
    132e:	40 e0       	ldi	r20, 0x00	; 0
    1330:	50 e0       	ldi	r21, 0x00	; 0
    1332:	0e 94 04 0e 	call	0x1c08	; 0x1c08 <__udivmodsi4>
    1336:	2b 83       	std	Y+3, r18	; 0x03
    1338:	b9 01       	movw	r22, r18
    133a:	ca 01       	movw	r24, r20
    133c:	2c e3       	ldi	r18, 0x3C	; 60
    133e:	30 e0       	ldi	r19, 0x00	; 0
    1340:	40 e0       	ldi	r20, 0x00	; 0
    1342:	50 e0       	ldi	r21, 0x00	; 0
    1344:	0e 94 d1 0d 	call	0x1ba2	; 0x1ba2 <__mulsi3>
    1348:	e6 1a       	sub	r14, r22
    134a:	f7 0a       	sbc	r15, r23
    134c:	08 0b       	sbc	r16, r24
    134e:	19 0b       	sbc	r17, r25
    1350:	ea 82       	std	Y+2, r14	; 0x02
    1352:	d5 01       	movw	r26, r10
    1354:	14 96       	adiw	r26, 0x04	; 4
    1356:	8d 91       	ld	r24, X+
    1358:	9c 91       	ld	r25, X
    135a:	15 97       	sbiw	r26, 0x05	; 5
    135c:	99 83       	std	Y+1, r25	; 0x01
    135e:	88 83       	st	Y, r24
    1360:	df 91       	pop	r29
    1362:	cf 91       	pop	r28
    1364:	1f 91       	pop	r17
    1366:	0f 91       	pop	r16
    1368:	ff 90       	pop	r15
    136a:	ef 90       	pop	r14
    136c:	df 90       	pop	r13
    136e:	cf 90       	pop	r12
    1370:	bf 90       	pop	r11
    1372:	af 90       	pop	r10
    1374:	9f 90       	pop	r9
    1376:	8f 90       	pop	r8
    1378:	7f 90       	pop	r7
    137a:	6f 90       	pop	r6
    137c:	08 95       	ret

0000137e <_ZN7MHV_RTC11toTimestampEP13mhv_timestampP8mhv_time>:
    137e:	6f 92       	push	r6
    1380:	7f 92       	push	r7
    1382:	8f 92       	push	r8
    1384:	9f 92       	push	r9
    1386:	af 92       	push	r10
    1388:	bf 92       	push	r11
    138a:	cf 92       	push	r12
    138c:	df 92       	push	r13
    138e:	ef 92       	push	r14
    1390:	ff 92       	push	r15
    1392:	0f 93       	push	r16
    1394:	1f 93       	push	r17
    1396:	cf 93       	push	r28
    1398:	df 93       	push	r29
    139a:	3c 01       	movw	r6, r24
    139c:	4b 01       	movw	r8, r22
    139e:	ea 01       	movw	r28, r20
    13a0:	88 81       	ld	r24, Y
    13a2:	99 81       	ldd	r25, Y+1	; 0x01
    13a4:	db 01       	movw	r26, r22
    13a6:	15 96       	adiw	r26, 0x05	; 5
    13a8:	9c 93       	st	X, r25
    13aa:	8e 93       	st	-X, r24
    13ac:	14 97       	sbiw	r26, 0x04	; 4
    13ae:	ea 80       	ldd	r14, Y+2	; 0x02
    13b0:	6b 81       	ldd	r22, Y+3	; 0x03
    13b2:	70 e0       	ldi	r23, 0x00	; 0
    13b4:	80 e0       	ldi	r24, 0x00	; 0
    13b6:	90 e0       	ldi	r25, 0x00	; 0
    13b8:	2c e3       	ldi	r18, 0x3C	; 60
    13ba:	30 e0       	ldi	r19, 0x00	; 0
    13bc:	40 e0       	ldi	r20, 0x00	; 0
    13be:	50 e0       	ldi	r21, 0x00	; 0
    13c0:	0e 94 d1 0d 	call	0x1ba2	; 0x1ba2 <__mulsi3>
    13c4:	5b 01       	movw	r10, r22
    13c6:	6c 01       	movw	r12, r24
    13c8:	6c 81       	ldd	r22, Y+4	; 0x04
    13ca:	70 e0       	ldi	r23, 0x00	; 0
    13cc:	80 e0       	ldi	r24, 0x00	; 0
    13ce:	90 e0       	ldi	r25, 0x00	; 0
    13d0:	20 e1       	ldi	r18, 0x10	; 16
    13d2:	3e e0       	ldi	r19, 0x0E	; 14
    13d4:	40 e0       	ldi	r20, 0x00	; 0
    13d6:	50 e0       	ldi	r21, 0x00	; 0
    13d8:	0e 94 d1 0d 	call	0x1ba2	; 0x1ba2 <__mulsi3>
    13dc:	a6 0e       	add	r10, r22
    13de:	b7 1e       	adc	r11, r23
    13e0:	c8 1e       	adc	r12, r24
    13e2:	d9 1e       	adc	r13, r25
    13e4:	ae 0c       	add	r10, r14
    13e6:	b1 1c       	adc	r11, r1
    13e8:	c1 1c       	adc	r12, r1
    13ea:	d1 1c       	adc	r13, r1
    13ec:	69 85       	ldd	r22, Y+9	; 0x09
    13ee:	7a 85       	ldd	r23, Y+10	; 0x0a
    13f0:	61 15       	cp	r22, r1
    13f2:	71 05       	cpc	r23, r1
    13f4:	79 f0       	breq	.+30     	; 0x1414 <_ZN7MHV_RTC11toTimestampEP13mhv_timestampP8mhv_time+0x96>
    13f6:	80 e0       	ldi	r24, 0x00	; 0
    13f8:	90 e0       	ldi	r25, 0x00	; 0
    13fa:	20 e8       	ldi	r18, 0x80	; 128
    13fc:	31 e5       	ldi	r19, 0x51	; 81
    13fe:	41 e0       	ldi	r20, 0x01	; 1
    1400:	50 e0       	ldi	r21, 0x00	; 0
    1402:	0e 94 d1 0d 	call	0x1ba2	; 0x1ba2 <__mulsi3>
    1406:	7b 01       	movw	r14, r22
    1408:	8c 01       	movw	r16, r24
    140a:	ea 0c       	add	r14, r10
    140c:	fb 1c       	adc	r15, r11
    140e:	0c 1d       	adc	r16, r12
    1410:	1d 1d       	adc	r17, r13
    1412:	3b c0       	rjmp	.+118    	; 0x148a <_ZN7MHV_RTC11toTimestampEP13mhv_timestampP8mhv_time+0x10c>
    1414:	6d 81       	ldd	r22, Y+5	; 0x05
    1416:	70 e0       	ldi	r23, 0x00	; 0
    1418:	61 50       	subi	r22, 0x01	; 1
    141a:	70 40       	sbci	r23, 0x00	; 0
    141c:	88 27       	eor	r24, r24
    141e:	77 fd       	sbrc	r23, 7
    1420:	80 95       	com	r24
    1422:	98 2f       	mov	r25, r24
    1424:	20 e8       	ldi	r18, 0x80	; 128
    1426:	31 e5       	ldi	r19, 0x51	; 81
    1428:	41 e0       	ldi	r20, 0x01	; 1
    142a:	50 e0       	ldi	r21, 0x00	; 0
    142c:	0e 94 d1 0d 	call	0x1ba2	; 0x1ba2 <__mulsi3>
    1430:	7b 01       	movw	r14, r22
    1432:	8c 01       	movw	r16, r24
    1434:	ea 0c       	add	r14, r10
    1436:	fb 1c       	adc	r15, r11
    1438:	0c 1d       	adc	r16, r12
    143a:	1d 1d       	adc	r17, r13
    143c:	ee 81       	ldd	r30, Y+6	; 0x06
    143e:	e1 30       	cpi	r30, 0x01	; 1
    1440:	21 f1       	breq	.+72     	; 0x148a <_ZN7MHV_RTC11toTimestampEP13mhv_timestampP8mhv_time+0x10c>
    1442:	e2 30       	cpi	r30, 0x02	; 2
    1444:	29 f4       	brne	.+10     	; 0x1450 <_ZN7MHV_RTC11toTimestampEP13mhv_timestampP8mhv_time+0xd2>
    1446:	80 e8       	ldi	r24, 0x80	; 128
    1448:	98 ec       	ldi	r25, 0xC8	; 200
    144a:	ad e4       	ldi	r26, 0x4D	; 77
    144c:	b0 e0       	ldi	r27, 0x00	; 0
    144e:	19 c0       	rjmp	.+50     	; 0x1482 <_ZN7MHV_RTC11toTimestampEP13mhv_timestampP8mhv_time+0x104>
    1450:	f0 e0       	ldi	r31, 0x00	; 0
    1452:	ee 0f       	add	r30, r30
    1454:	ff 1f       	adc	r31, r31
    1456:	ee 0f       	add	r30, r30
    1458:	ff 1f       	adc	r31, r31
    145a:	ea 53       	subi	r30, 0x3A	; 58
    145c:	fd 4f       	sbci	r31, 0xFD	; 253
    145e:	85 91       	lpm	r24, Z+
    1460:	95 91       	lpm	r25, Z+
    1462:	a5 91       	lpm	r26, Z+
    1464:	b4 91       	lpm	r27, Z
    1466:	e8 0e       	add	r14, r24
    1468:	f9 1e       	adc	r15, r25
    146a:	0a 1f       	adc	r16, r26
    146c:	1b 1f       	adc	r17, r27
    146e:	8f 81       	ldd	r24, Y+7	; 0x07
    1470:	98 85       	ldd	r25, Y+8	; 0x08
    1472:	0e 94 27 08 	call	0x104e	; 0x104e <_Z14mhv_isLeapYearj>
    1476:	88 23       	and	r24, r24
    1478:	41 f0       	breq	.+16     	; 0x148a <_ZN7MHV_RTC11toTimestampEP13mhv_timestampP8mhv_time+0x10c>
    147a:	80 e8       	ldi	r24, 0x80	; 128
    147c:	91 e5       	ldi	r25, 0x51	; 81
    147e:	a1 e0       	ldi	r26, 0x01	; 1
    1480:	b0 e0       	ldi	r27, 0x00	; 0
    1482:	e8 0e       	add	r14, r24
    1484:	f9 1e       	adc	r15, r25
    1486:	0a 1f       	adc	r16, r26
    1488:	1b 1f       	adc	r17, r27
    148a:	0f 80       	ldd	r0, Y+7	; 0x07
    148c:	d8 85       	ldd	r29, Y+8	; 0x08
    148e:	c0 2d       	mov	r28, r0
    1490:	15 c0       	rjmp	.+42     	; 0x14bc <_ZN7MHV_RTC11toTimestampEP13mhv_timestampP8mhv_time+0x13e>
    1492:	80 e8       	ldi	r24, 0x80	; 128
    1494:	93 e3       	ldi	r25, 0x33	; 51
    1496:	a1 ee       	ldi	r26, 0xE1	; 225
    1498:	b1 e0       	ldi	r27, 0x01	; 1
    149a:	e8 0e       	add	r14, r24
    149c:	f9 1e       	adc	r15, r25
    149e:	0a 1f       	adc	r16, r26
    14a0:	1b 1f       	adc	r17, r27
    14a2:	ce 01       	movw	r24, r28
    14a4:	0e 94 27 08 	call	0x104e	; 0x104e <_Z14mhv_isLeapYearj>
    14a8:	88 23       	and	r24, r24
    14aa:	41 f0       	breq	.+16     	; 0x14bc <_ZN7MHV_RTC11toTimestampEP13mhv_timestampP8mhv_time+0x13e>
    14ac:	80 e8       	ldi	r24, 0x80	; 128
    14ae:	91 e5       	ldi	r25, 0x51	; 81
    14b0:	a1 e0       	ldi	r26, 0x01	; 1
    14b2:	b0 e0       	ldi	r27, 0x00	; 0
    14b4:	e8 0e       	add	r14, r24
    14b6:	f9 1e       	adc	r15, r25
    14b8:	0a 1f       	adc	r16, r26
    14ba:	1b 1f       	adc	r17, r27
    14bc:	21 97       	sbiw	r28, 0x01	; 1
    14be:	97 e0       	ldi	r25, 0x07	; 7
    14c0:	c2 3b       	cpi	r28, 0xB2	; 178
    14c2:	d9 07       	cpc	r29, r25
    14c4:	30 f7       	brcc	.-52     	; 0x1492 <_ZN7MHV_RTC11toTimestampEP13mhv_timestampP8mhv_time+0x114>
    14c6:	d3 01       	movw	r26, r6
    14c8:	1e 96       	adiw	r26, 0x0e	; 14
    14ca:	8d 91       	ld	r24, X+
    14cc:	9c 91       	ld	r25, X
    14ce:	1f 97       	sbiw	r26, 0x0f	; 15
    14d0:	aa 27       	eor	r26, r26
    14d2:	97 fd       	sbrc	r25, 7
    14d4:	a0 95       	com	r26
    14d6:	ba 2f       	mov	r27, r26
    14d8:	e8 1a       	sub	r14, r24
    14da:	f9 0a       	sbc	r15, r25
    14dc:	0a 0b       	sbc	r16, r26
    14de:	1b 0b       	sbc	r17, r27
    14e0:	f4 01       	movw	r30, r8
    14e2:	e0 82       	st	Z, r14
    14e4:	f1 82       	std	Z+1, r15	; 0x01
    14e6:	02 83       	std	Z+2, r16	; 0x02
    14e8:	13 83       	std	Z+3, r17	; 0x03
    14ea:	df 91       	pop	r29
    14ec:	cf 91       	pop	r28
    14ee:	1f 91       	pop	r17
    14f0:	0f 91       	pop	r16
    14f2:	ff 90       	pop	r15
    14f4:	ef 90       	pop	r14
    14f6:	df 90       	pop	r13
    14f8:	cf 90       	pop	r12
    14fa:	bf 90       	pop	r11
    14fc:	af 90       	pop	r10
    14fe:	9f 90       	pop	r9
    1500:	8f 90       	pop	r8
    1502:	7f 90       	pop	r7
    1504:	6f 90       	pop	r6
    1506:	08 95       	ret

00001508 <_ZN7MHV_RTC8addEventEP9mhv_event>:
    1508:	cf 92       	push	r12
    150a:	df 92       	push	r13
    150c:	ef 92       	push	r14
    150e:	ff 92       	push	r15
    1510:	0f 93       	push	r16
    1512:	1f 93       	push	r17
    1514:	cf 93       	push	r28
    1516:	df 93       	push	r29
    1518:	ec 01       	movw	r28, r24
    151a:	d6 2e       	mov	r13, r22
    151c:	c7 2e       	mov	r12, r23
    151e:	9c 81       	ldd	r25, Y+4	; 0x04
    1520:	8d 81       	ldd	r24, Y+5	; 0x05
    1522:	98 17       	cp	r25, r24
    1524:	09 f4       	brne	.+2      	; 0x1528 <_ZN7MHV_RTC8addEventEP9mhv_event+0x20>
    1526:	72 c0       	rjmp	.+228    	; 0x160c <_ZN7MHV_RTC8addEventEP9mhv_event+0x104>
    1528:	ee 24       	eor	r14, r14
    152a:	ff 24       	eor	r15, r15
    152c:	00 e0       	ldi	r16, 0x00	; 0
    152e:	10 e0       	ldi	r17, 0x00	; 0
    1530:	10 c0       	rjmp	.+32     	; 0x1552 <_ZN7MHV_RTC8addEventEP9mhv_event+0x4a>
    1532:	6a 81       	ldd	r22, Y+2	; 0x02
    1534:	7b 81       	ldd	r23, Y+3	; 0x03
    1536:	6e 0d       	add	r22, r14
    1538:	7f 1d       	adc	r23, r15
    153a:	8d 2d       	mov	r24, r13
    153c:	9c 2d       	mov	r25, r12
    153e:	0e 94 cf 07 	call	0xf9e	; 0xf9e <_Z21mhv_timestampLessThanP13mhv_timestampS0_>
    1542:	2a e0       	ldi	r18, 0x0A	; 10
    1544:	30 e0       	ldi	r19, 0x00	; 0
    1546:	e2 0e       	add	r14, r18
    1548:	f3 1e       	adc	r15, r19
    154a:	88 23       	and	r24, r24
    154c:	39 f4       	brne	.+14     	; 0x155c <_ZN7MHV_RTC8addEventEP9mhv_event+0x54>
    154e:	0f 5f       	subi	r16, 0xFF	; 255
    1550:	1f 4f       	sbci	r17, 0xFF	; 255
    1552:	8c 81       	ldd	r24, Y+4	; 0x04
    1554:	90 e0       	ldi	r25, 0x00	; 0
    1556:	08 17       	cp	r16, r24
    1558:	19 07       	cpc	r17, r25
    155a:	5c f3       	brlt	.-42     	; 0x1532 <_ZN7MHV_RTC8addEventEP9mhv_event+0x2a>
    155c:	2c 81       	ldd	r18, Y+4	; 0x04
    155e:	30 e0       	ldi	r19, 0x00	; 0
    1560:	8a 81       	ldd	r24, Y+2	; 0x02
    1562:	9b 81       	ldd	r25, Y+3	; 0x03
    1564:	02 17       	cp	r16, r18
    1566:	13 07       	cpc	r17, r19
    1568:	e4 f5       	brge	.+120    	; 0x15e2 <_ZN7MHV_RTC8addEventEP9mhv_event+0xda>
    156a:	78 01       	movw	r14, r16
    156c:	ee 0c       	add	r14, r14
    156e:	ff 1c       	adc	r15, r15
    1570:	98 01       	movw	r18, r16
    1572:	f3 e0       	ldi	r31, 0x03	; 3
    1574:	22 0f       	add	r18, r18
    1576:	33 1f       	adc	r19, r19
    1578:	fa 95       	dec	r31
    157a:	e1 f7       	brne	.-8      	; 0x1574 <_ZN7MHV_RTC8addEventEP9mhv_event+0x6c>
    157c:	e2 0e       	add	r14, r18
    157e:	f3 1e       	adc	r15, r19
    1580:	2c 81       	ldd	r18, Y+4	; 0x04
    1582:	a8 01       	movw	r20, r16
    1584:	4f 5f       	subi	r20, 0xFF	; 255
    1586:	5f 4f       	sbci	r21, 0xFF	; 255
    1588:	ba 01       	movw	r22, r20
    158a:	66 0f       	add	r22, r22
    158c:	77 1f       	adc	r23, r23
    158e:	33 e0       	ldi	r19, 0x03	; 3
    1590:	44 0f       	add	r20, r20
    1592:	55 1f       	adc	r21, r21
    1594:	3a 95       	dec	r19
    1596:	e1 f7       	brne	.-8      	; 0x1590 <_ZN7MHV_RTC8addEventEP9mhv_event+0x88>
    1598:	64 0f       	add	r22, r20
    159a:	75 1f       	adc	r23, r21
    159c:	fc 01       	movw	r30, r24
    159e:	ee 0d       	add	r30, r14
    15a0:	ff 1d       	adc	r31, r15
    15a2:	30 e0       	ldi	r19, 0x00	; 0
    15a4:	20 1b       	sub	r18, r16
    15a6:	31 0b       	sbc	r19, r17
    15a8:	a9 01       	movw	r20, r18
    15aa:	44 0f       	add	r20, r20
    15ac:	55 1f       	adc	r21, r21
    15ae:	a3 e0       	ldi	r26, 0x03	; 3
    15b0:	22 0f       	add	r18, r18
    15b2:	33 1f       	adc	r19, r19
    15b4:	aa 95       	dec	r26
    15b6:	e1 f7       	brne	.-8      	; 0x15b0 <_ZN7MHV_RTC8addEventEP9mhv_event+0xa8>
    15b8:	42 0f       	add	r20, r18
    15ba:	53 1f       	adc	r21, r19
    15bc:	86 0f       	add	r24, r22
    15be:	97 1f       	adc	r25, r23
    15c0:	bf 01       	movw	r22, r30
    15c2:	0e 94 48 0e 	call	0x1c90	; 0x1c90 <memmove>
    15c6:	ea 81       	ldd	r30, Y+2	; 0x02
    15c8:	fb 81       	ldd	r31, Y+3	; 0x03
    15ca:	ee 0d       	add	r30, r14
    15cc:	ff 1d       	adc	r31, r15
    15ce:	96 01       	movw	r18, r12
    15d0:	83 2f       	mov	r24, r19
    15d2:	9c 2d       	mov	r25, r12
    15d4:	dc 01       	movw	r26, r24
    15d6:	8a e0       	ldi	r24, 0x0A	; 10
    15d8:	0d 90       	ld	r0, X+
    15da:	01 92       	st	Z+, r0
    15dc:	81 50       	subi	r24, 0x01	; 1
    15de:	e1 f7       	brne	.-8      	; 0x15d8 <_ZN7MHV_RTC8addEventEP9mhv_event+0xd0>
    15e0:	10 c0       	rjmp	.+32     	; 0x1602 <_ZN7MHV_RTC8addEventEP9mhv_event+0xfa>
    15e2:	ec 81       	ldd	r30, Y+4	; 0x04
    15e4:	2a e0       	ldi	r18, 0x0A	; 10
    15e6:	e2 9f       	mul	r30, r18
    15e8:	f0 01       	movw	r30, r0
    15ea:	11 24       	eor	r1, r1
    15ec:	e8 0f       	add	r30, r24
    15ee:	f9 1f       	adc	r31, r25
    15f0:	96 01       	movw	r18, r12
    15f2:	83 2f       	mov	r24, r19
    15f4:	9c 2d       	mov	r25, r12
    15f6:	dc 01       	movw	r26, r24
    15f8:	8a e0       	ldi	r24, 0x0A	; 10
    15fa:	0d 90       	ld	r0, X+
    15fc:	01 92       	st	Z+, r0
    15fe:	81 50       	subi	r24, 0x01	; 1
    1600:	e1 f7       	brne	.-8      	; 0x15fa <_ZN7MHV_RTC8addEventEP9mhv_event+0xf2>
    1602:	8c 81       	ldd	r24, Y+4	; 0x04
    1604:	8f 5f       	subi	r24, 0xFF	; 255
    1606:	8c 83       	std	Y+4, r24	; 0x04
    1608:	80 e0       	ldi	r24, 0x00	; 0
    160a:	01 c0       	rjmp	.+2      	; 0x160e <_ZN7MHV_RTC8addEventEP9mhv_event+0x106>
    160c:	81 e0       	ldi	r24, 0x01	; 1
    160e:	df 91       	pop	r29
    1610:	cf 91       	pop	r28
    1612:	1f 91       	pop	r17
    1614:	0f 91       	pop	r16
    1616:	ff 90       	pop	r15
    1618:	ef 90       	pop	r14
    161a:	df 90       	pop	r13
    161c:	cf 90       	pop	r12
    161e:	08 95       	ret

00001620 <_ZN7MHV_RTC9runEventsEv>:
    1620:	8f 92       	push	r8
    1622:	9f 92       	push	r9
    1624:	af 92       	push	r10
    1626:	bf 92       	push	r11
    1628:	cf 92       	push	r12
    162a:	df 92       	push	r13
    162c:	ef 92       	push	r14
    162e:	ff 92       	push	r15
    1630:	0f 93       	push	r16
    1632:	1f 93       	push	r17
    1634:	df 93       	push	r29
    1636:	cf 93       	push	r28
    1638:	00 d0       	rcall	.+0      	; 0x163a <_ZN7MHV_RTC9runEventsEv+0x1a>
    163a:	00 d0       	rcall	.+0      	; 0x163c <_ZN7MHV_RTC9runEventsEv+0x1c>
    163c:	00 d0       	rcall	.+0      	; 0x163e <_ZN7MHV_RTC9runEventsEv+0x1e>
    163e:	cd b7       	in	r28, 0x3d	; 61
    1640:	de b7       	in	r29, 0x3e	; 62
    1642:	8c 01       	movw	r16, r24
    1644:	dc 01       	movw	r26, r24
    1646:	1a 96       	adiw	r26, 0x0a	; 10
    1648:	8d 91       	ld	r24, X+
    164a:	9c 91       	ld	r25, X
    164c:	1b 97       	sbiw	r26, 0x0b	; 11
    164e:	9e 83       	std	Y+6, r25	; 0x06
    1650:	8d 83       	std	Y+5, r24	; 0x05
    1652:	16 96       	adiw	r26, 0x06	; 6
    1654:	8d 91       	ld	r24, X+
    1656:	9d 91       	ld	r25, X+
    1658:	0d 90       	ld	r0, X+
    165a:	bc 91       	ld	r27, X
    165c:	a0 2d       	mov	r26, r0
    165e:	89 83       	std	Y+1, r24	; 0x01
    1660:	9a 83       	std	Y+2, r25	; 0x02
    1662:	ab 83       	std	Y+3, r26	; 0x03
    1664:	bc 83       	std	Y+4, r27	; 0x04
    1666:	aa 24       	eor	r10, r10
    1668:	bb 24       	eor	r11, r11
    166a:	ee 24       	eor	r14, r14
    166c:	ff 24       	eor	r15, r15
    166e:	4e 01       	movw	r8, r28
    1670:	08 94       	sec
    1672:	81 1c       	adc	r8, r1
    1674:	91 1c       	adc	r9, r1
    1676:	f8 01       	movw	r30, r16
    1678:	84 81       	ldd	r24, Z+4	; 0x04
    167a:	90 e0       	ldi	r25, 0x00	; 0
    167c:	e8 16       	cp	r14, r24
    167e:	f9 06       	cpc	r15, r25
    1680:	34 f5       	brge	.+76     	; 0x16ce <_ZN7MHV_RTC9runEventsEv+0xae>
    1682:	c2 80       	ldd	r12, Z+2	; 0x02
    1684:	d3 80       	ldd	r13, Z+3	; 0x03
    1686:	ca 0c       	add	r12, r10
    1688:	db 1c       	adc	r13, r11
    168a:	c4 01       	movw	r24, r8
    168c:	b6 01       	movw	r22, r12
    168e:	0e 94 fb 07 	call	0xff6	; 0xff6 <_Z31mhv_timestampGreaterThanOrEqualP13mhv_timestampS0_>
    1692:	2a e0       	ldi	r18, 0x0A	; 10
    1694:	30 e0       	ldi	r19, 0x00	; 0
    1696:	a2 0e       	add	r10, r18
    1698:	b3 1e       	adc	r11, r19
    169a:	88 23       	and	r24, r24
    169c:	c1 f0       	breq	.+48     	; 0x16ce <_ZN7MHV_RTC9runEventsEv+0xae>
    169e:	d6 01       	movw	r26, r12
    16a0:	16 96       	adiw	r26, 0x06	; 6
    16a2:	ed 91       	ld	r30, X+
    16a4:	fc 91       	ld	r31, X
    16a6:	17 97       	sbiw	r26, 0x07	; 7
    16a8:	c6 01       	movw	r24, r12
    16aa:	09 95       	icall
    16ac:	08 94       	sec
    16ae:	e1 1c       	adc	r14, r1
    16b0:	f1 1c       	adc	r15, r1
    16b2:	f8 01       	movw	r30, r16
    16b4:	82 85       	ldd	r24, Z+10	; 0x0a
    16b6:	93 85       	ldd	r25, Z+11	; 0x0b
    16b8:	9e 83       	std	Y+6, r25	; 0x06
    16ba:	8d 83       	std	Y+5, r24	; 0x05
    16bc:	86 81       	ldd	r24, Z+6	; 0x06
    16be:	97 81       	ldd	r25, Z+7	; 0x07
    16c0:	a0 85       	ldd	r26, Z+8	; 0x08
    16c2:	b1 85       	ldd	r27, Z+9	; 0x09
    16c4:	89 83       	std	Y+1, r24	; 0x01
    16c6:	9a 83       	std	Y+2, r25	; 0x02
    16c8:	ab 83       	std	Y+3, r26	; 0x03
    16ca:	bc 83       	std	Y+4, r27	; 0x04
    16cc:	d4 cf       	rjmp	.-88     	; 0x1676 <_ZN7MHV_RTC9runEventsEv+0x56>
    16ce:	e1 14       	cp	r14, r1
    16d0:	f1 04       	cpc	r15, r1
    16d2:	71 f1       	breq	.+92     	; 0x1730 <_ZN7MHV_RTC9runEventsEv+0x110>
    16d4:	d8 01       	movw	r26, r16
    16d6:	14 96       	adiw	r26, 0x04	; 4
    16d8:	8c 91       	ld	r24, X
    16da:	14 97       	sbiw	r26, 0x04	; 4
    16dc:	90 e0       	ldi	r25, 0x00	; 0
    16de:	e8 16       	cp	r14, r24
    16e0:	f9 06       	cpc	r15, r25
    16e2:	14 f5       	brge	.+68     	; 0x1728 <_ZN7MHV_RTC9runEventsEv+0x108>
    16e4:	12 96       	adiw	r26, 0x02	; 2
    16e6:	8d 91       	ld	r24, X+
    16e8:	9c 91       	ld	r25, X
    16ea:	13 97       	sbiw	r26, 0x03	; 3
    16ec:	14 96       	adiw	r26, 0x04	; 4
    16ee:	2c 91       	ld	r18, X
    16f0:	b7 01       	movw	r22, r14
    16f2:	66 0f       	add	r22, r22
    16f4:	77 1f       	adc	r23, r23
    16f6:	a7 01       	movw	r20, r14
    16f8:	f3 e0       	ldi	r31, 0x03	; 3
    16fa:	44 0f       	add	r20, r20
    16fc:	55 1f       	adc	r21, r21
    16fe:	fa 95       	dec	r31
    1700:	e1 f7       	brne	.-8      	; 0x16fa <_ZN7MHV_RTC9runEventsEv+0xda>
    1702:	64 0f       	add	r22, r20
    1704:	75 1f       	adc	r23, r21
    1706:	68 0f       	add	r22, r24
    1708:	79 1f       	adc	r23, r25
    170a:	30 e0       	ldi	r19, 0x00	; 0
    170c:	2e 19       	sub	r18, r14
    170e:	3f 09       	sbc	r19, r15
    1710:	a9 01       	movw	r20, r18
    1712:	44 0f       	add	r20, r20
    1714:	55 1f       	adc	r21, r21
    1716:	b3 e0       	ldi	r27, 0x03	; 3
    1718:	22 0f       	add	r18, r18
    171a:	33 1f       	adc	r19, r19
    171c:	ba 95       	dec	r27
    171e:	e1 f7       	brne	.-8      	; 0x1718 <_ZN7MHV_RTC9runEventsEv+0xf8>
    1720:	42 0f       	add	r20, r18
    1722:	53 1f       	adc	r21, r19
    1724:	0e 94 48 0e 	call	0x1c90	; 0x1c90 <memmove>
    1728:	f8 01       	movw	r30, r16
    172a:	84 81       	ldd	r24, Z+4	; 0x04
    172c:	8e 19       	sub	r24, r14
    172e:	84 83       	std	Z+4, r24	; 0x04
    1730:	26 96       	adiw	r28, 0x06	; 6
    1732:	0f b6       	in	r0, 0x3f	; 63
    1734:	f8 94       	cli
    1736:	de bf       	out	0x3e, r29	; 62
    1738:	0f be       	out	0x3f, r0	; 63
    173a:	cd bf       	out	0x3d, r28	; 61
    173c:	cf 91       	pop	r28
    173e:	df 91       	pop	r29
    1740:	1f 91       	pop	r17
    1742:	0f 91       	pop	r16
    1744:	ff 90       	pop	r15
    1746:	ef 90       	pop	r14
    1748:	df 90       	pop	r13
    174a:	cf 90       	pop	r12
    174c:	bf 90       	pop	r11
    174e:	af 90       	pop	r10
    1750:	9f 90       	pop	r9
    1752:	8f 90       	pop	r8
    1754:	08 95       	ret

00001756 <_ZN14MHV_RingBufferC1EPch>:
    1756:	fc 01       	movw	r30, r24
    1758:	71 83       	std	Z+1, r23	; 0x01
    175a:	60 83       	st	Z, r22
    175c:	42 83       	std	Z+2, r20	; 0x02
    175e:	13 82       	std	Z+3, r1	; 0x03
    1760:	14 82       	std	Z+4, r1	; 0x04
    1762:	08 95       	ret

00001764 <_ZN14MHV_RingBuffer6appendEc>:
    1764:	fc 01       	movw	r30, r24
    1766:	93 81       	ldd	r25, Z+3	; 0x03
    1768:	89 2f       	mov	r24, r25
    176a:	8f 5f       	subi	r24, 0xFF	; 255
    176c:	22 81       	ldd	r18, Z+2	; 0x02
    176e:	82 17       	cp	r24, r18
    1770:	09 f4       	brne	.+2      	; 0x1774 <_ZN14MHV_RingBuffer6appendEc+0x10>
    1772:	80 e0       	ldi	r24, 0x00	; 0
    1774:	24 81       	ldd	r18, Z+4	; 0x04
    1776:	82 17       	cp	r24, r18
    1778:	41 f0       	breq	.+16     	; 0x178a <_ZN14MHV_RingBuffer6appendEc+0x26>
    177a:	a0 81       	ld	r26, Z
    177c:	b1 81       	ldd	r27, Z+1	; 0x01
    177e:	a9 0f       	add	r26, r25
    1780:	b1 1d       	adc	r27, r1
    1782:	6c 93       	st	X, r22
    1784:	83 83       	std	Z+3, r24	; 0x03
    1786:	80 e0       	ldi	r24, 0x00	; 0
    1788:	08 95       	ret
    178a:	81 e0       	ldi	r24, 0x01	; 1
    178c:	08 95       	ret

0000178e <_ZN14MHV_RingBuffer7consumeEv>:
    178e:	fc 01       	movw	r30, r24
    1790:	84 81       	ldd	r24, Z+4	; 0x04
    1792:	93 81       	ldd	r25, Z+3	; 0x03
    1794:	98 17       	cp	r25, r24
    1796:	69 f0       	breq	.+26     	; 0x17b2 <_ZN14MHV_RingBuffer7consumeEv+0x24>
    1798:	a0 81       	ld	r26, Z
    179a:	b1 81       	ldd	r27, Z+1	; 0x01
    179c:	a8 0f       	add	r26, r24
    179e:	b1 1d       	adc	r27, r1
    17a0:	2c 91       	ld	r18, X
    17a2:	8f 5f       	subi	r24, 0xFF	; 255
    17a4:	92 81       	ldd	r25, Z+2	; 0x02
    17a6:	89 17       	cp	r24, r25
    17a8:	09 f4       	brne	.+2      	; 0x17ac <_ZN14MHV_RingBuffer7consumeEv+0x1e>
    17aa:	80 e0       	ldi	r24, 0x00	; 0
    17ac:	84 83       	std	Z+4, r24	; 0x04
    17ae:	30 e0       	ldi	r19, 0x00	; 0
    17b0:	02 c0       	rjmp	.+4      	; 0x17b6 <_ZN14MHV_RingBuffer7consumeEv+0x28>
    17b2:	2f ef       	ldi	r18, 0xFF	; 255
    17b4:	3f ef       	ldi	r19, 0xFF	; 255
    17b6:	c9 01       	movw	r24, r18
    17b8:	08 95       	ret

000017ba <_ZN14MHV_RingBuffer6lengthEv>:
    17ba:	fc 01       	movw	r30, r24
    17bc:	43 81       	ldd	r20, Z+3	; 0x03
    17be:	50 e0       	ldi	r21, 0x00	; 0
    17c0:	24 81       	ldd	r18, Z+4	; 0x04
    17c2:	30 e0       	ldi	r19, 0x00	; 0
    17c4:	ca 01       	movw	r24, r20
    17c6:	82 1b       	sub	r24, r18
    17c8:	93 0b       	sbc	r25, r19
    17ca:	97 ff       	sbrs	r25, 7
    17cc:	08 c0       	rjmp	.+16     	; 0x17de <_ZN14MHV_RingBuffer6lengthEv+0x24>
    17ce:	82 81       	ldd	r24, Z+2	; 0x02
    17d0:	ba 01       	movw	r22, r20
    17d2:	68 0f       	add	r22, r24
    17d4:	71 1d       	adc	r23, r1
    17d6:	cb 01       	movw	r24, r22
    17d8:	01 96       	adiw	r24, 0x01	; 1
    17da:	82 1b       	sub	r24, r18
    17dc:	93 0b       	sbc	r25, r19
    17de:	08 95       	ret

000017e0 <_ZN14MHV_RingBuffer7consumeEPvh>:
    17e0:	cf 92       	push	r12
    17e2:	df 92       	push	r13
    17e4:	ef 92       	push	r14
    17e6:	ff 92       	push	r15
    17e8:	0f 93       	push	r16
    17ea:	1f 93       	push	r17
    17ec:	df 93       	push	r29
    17ee:	cf 93       	push	r28
    17f0:	0f 92       	push	r0
    17f2:	cd b7       	in	r28, 0x3d	; 61
    17f4:	de b7       	in	r29, 0x3e	; 62
    17f6:	6c 01       	movw	r12, r24
    17f8:	f6 2e       	mov	r15, r22
    17fa:	e4 2e       	mov	r14, r20
    17fc:	79 83       	std	Y+1, r23	; 0x01
    17fe:	0e 94 dd 0b 	call	0x17ba	; 0x17ba <_ZN14MHV_RingBuffer6lengthEv>
    1802:	79 81       	ldd	r23, Y+1	; 0x01
    1804:	8e 15       	cp	r24, r14
    1806:	78 f0       	brcs	.+30     	; 0x1826 <_ZN14MHV_RingBuffer7consumeEPvh+0x46>
    1808:	0f 2d       	mov	r16, r15
    180a:	17 2f       	mov	r17, r23
    180c:	06 c0       	rjmp	.+12     	; 0x181a <_ZN14MHV_RingBuffer7consumeEPvh+0x3a>
    180e:	c6 01       	movw	r24, r12
    1810:	0e 94 c7 0b 	call	0x178e	; 0x178e <_ZN14MHV_RingBuffer7consumeEv>
    1814:	f8 01       	movw	r30, r16
    1816:	81 93       	st	Z+, r24
    1818:	8f 01       	movw	r16, r30
    181a:	80 2f       	mov	r24, r16
    181c:	8f 19       	sub	r24, r15
    181e:	8e 15       	cp	r24, r14
    1820:	b0 f3       	brcs	.-20     	; 0x180e <_ZN14MHV_RingBuffer7consumeEPvh+0x2e>
    1822:	80 e0       	ldi	r24, 0x00	; 0
    1824:	01 c0       	rjmp	.+2      	; 0x1828 <_ZN14MHV_RingBuffer7consumeEPvh+0x48>
    1826:	81 e0       	ldi	r24, 0x01	; 1
    1828:	0f 90       	pop	r0
    182a:	cf 91       	pop	r28
    182c:	df 91       	pop	r29
    182e:	1f 91       	pop	r17
    1830:	0f 91       	pop	r16
    1832:	ff 90       	pop	r15
    1834:	ef 90       	pop	r14
    1836:	df 90       	pop	r13
    1838:	cf 90       	pop	r12
    183a:	08 95       	ret

0000183c <_ZN14MHV_RingBuffer4fullEv>:
    183c:	cf 93       	push	r28
    183e:	df 93       	push	r29
    1840:	ec 01       	movw	r28, r24
    1842:	0e 94 dd 0b 	call	0x17ba	; 0x17ba <_ZN14MHV_RingBuffer6lengthEv>
    1846:	48 2f       	mov	r20, r24
    1848:	50 e0       	ldi	r21, 0x00	; 0
    184a:	2a 81       	ldd	r18, Y+2	; 0x02
    184c:	30 e0       	ldi	r19, 0x00	; 0
    184e:	21 50       	subi	r18, 0x01	; 1
    1850:	30 40       	sbci	r19, 0x00	; 0
    1852:	81 e0       	ldi	r24, 0x01	; 1
    1854:	42 17       	cp	r20, r18
    1856:	53 07       	cpc	r21, r19
    1858:	09 f0       	breq	.+2      	; 0x185c <_ZN14MHV_RingBuffer4fullEv+0x20>
    185a:	80 e0       	ldi	r24, 0x00	; 0
    185c:	df 91       	pop	r29
    185e:	cf 91       	pop	r28
    1860:	08 95       	ret

00001862 <_ZN14MHV_RingBuffer4fullEh>:
    1862:	0f 93       	push	r16
    1864:	1f 93       	push	r17
    1866:	df 93       	push	r29
    1868:	cf 93       	push	r28
    186a:	0f 92       	push	r0
    186c:	cd b7       	in	r28, 0x3d	; 61
    186e:	de b7       	in	r29, 0x3e	; 62
    1870:	8c 01       	movw	r16, r24
    1872:	69 83       	std	Y+1, r22	; 0x01
    1874:	0e 94 dd 0b 	call	0x17ba	; 0x17ba <_ZN14MHV_RingBuffer6lengthEv>
    1878:	48 2f       	mov	r20, r24
    187a:	50 e0       	ldi	r21, 0x00	; 0
    187c:	f8 01       	movw	r30, r16
    187e:	22 81       	ldd	r18, Z+2	; 0x02
    1880:	30 e0       	ldi	r19, 0x00	; 0
    1882:	21 50       	subi	r18, 0x01	; 1
    1884:	30 40       	sbci	r19, 0x00	; 0
    1886:	69 81       	ldd	r22, Y+1	; 0x01
    1888:	26 1b       	sub	r18, r22
    188a:	31 09       	sbc	r19, r1
    188c:	81 e0       	ldi	r24, 0x01	; 1
    188e:	24 17       	cp	r18, r20
    1890:	35 07       	cpc	r19, r21
    1892:	0c f0       	brlt	.+2      	; 0x1896 <_ZN14MHV_RingBuffer4fullEh+0x34>
    1894:	80 e0       	ldi	r24, 0x00	; 0
    1896:	0f 90       	pop	r0
    1898:	cf 91       	pop	r28
    189a:	df 91       	pop	r29
    189c:	1f 91       	pop	r17
    189e:	0f 91       	pop	r16
    18a0:	08 95       	ret

000018a2 <_ZN14MHV_RingBuffer6appendEPKvh>:
    18a2:	cf 92       	push	r12
    18a4:	df 92       	push	r13
    18a6:	ef 92       	push	r14
    18a8:	ff 92       	push	r15
    18aa:	0f 93       	push	r16
    18ac:	1f 93       	push	r17
    18ae:	df 93       	push	r29
    18b0:	cf 93       	push	r28
    18b2:	0f 92       	push	r0
    18b4:	cd b7       	in	r28, 0x3d	; 61
    18b6:	de b7       	in	r29, 0x3e	; 62
    18b8:	6c 01       	movw	r12, r24
    18ba:	f6 2e       	mov	r15, r22
    18bc:	e4 2e       	mov	r14, r20
    18be:	64 2f       	mov	r22, r20
    18c0:	79 83       	std	Y+1, r23	; 0x01
    18c2:	0e 94 31 0c 	call	0x1862	; 0x1862 <_ZN14MHV_RingBuffer4fullEh>
    18c6:	79 81       	ldd	r23, Y+1	; 0x01
    18c8:	88 23       	and	r24, r24
    18ca:	79 f4       	brne	.+30     	; 0x18ea <_ZN14MHV_RingBuffer6appendEPKvh+0x48>
    18cc:	0f 2d       	mov	r16, r15
    18ce:	17 2f       	mov	r17, r23
    18d0:	06 c0       	rjmp	.+12     	; 0x18de <_ZN14MHV_RingBuffer6appendEPKvh+0x3c>
    18d2:	f8 01       	movw	r30, r16
    18d4:	61 91       	ld	r22, Z+
    18d6:	8f 01       	movw	r16, r30
    18d8:	c6 01       	movw	r24, r12
    18da:	0e 94 b2 0b 	call	0x1764	; 0x1764 <_ZN14MHV_RingBuffer6appendEc>
    18de:	80 2f       	mov	r24, r16
    18e0:	8f 19       	sub	r24, r15
    18e2:	8e 15       	cp	r24, r14
    18e4:	b0 f3       	brcs	.-20     	; 0x18d2 <_ZN14MHV_RingBuffer6appendEPKvh+0x30>
    18e6:	80 e0       	ldi	r24, 0x00	; 0
    18e8:	01 c0       	rjmp	.+2      	; 0x18ec <_ZN14MHV_RingBuffer6appendEPKvh+0x4a>
    18ea:	81 e0       	ldi	r24, 0x01	; 1
    18ec:	0f 90       	pop	r0
    18ee:	cf 91       	pop	r28
    18f0:	df 91       	pop	r29
    18f2:	1f 91       	pop	r17
    18f4:	0f 91       	pop	r16
    18f6:	ff 90       	pop	r15
    18f8:	ef 90       	pop	r14
    18fa:	df 90       	pop	r13
    18fc:	cf 90       	pop	r12
    18fe:	08 95       	ret

00001900 <_ZN14MHV_RingBuffer8peekHeadEv>:
    1900:	fc 01       	movw	r30, r24
    1902:	23 81       	ldd	r18, Z+3	; 0x03
    1904:	84 81       	ldd	r24, Z+4	; 0x04
    1906:	28 17       	cp	r18, r24
    1908:	71 f0       	breq	.+28     	; 0x1926 <_ZN14MHV_RingBuffer8peekHeadEv+0x26>
    190a:	22 23       	and	r18, r18
    190c:	09 f4       	brne	.+2      	; 0x1910 <_ZN14MHV_RingBuffer8peekHeadEv+0x10>
    190e:	22 81       	ldd	r18, Z+2	; 0x02
    1910:	30 e0       	ldi	r19, 0x00	; 0
    1912:	21 50       	subi	r18, 0x01	; 1
    1914:	30 40       	sbci	r19, 0x00	; 0
    1916:	01 90       	ld	r0, Z+
    1918:	f0 81       	ld	r31, Z
    191a:	e0 2d       	mov	r30, r0
    191c:	e2 0f       	add	r30, r18
    191e:	f3 1f       	adc	r31, r19
    1920:	20 81       	ld	r18, Z
    1922:	30 e0       	ldi	r19, 0x00	; 0
    1924:	02 c0       	rjmp	.+4      	; 0x192a <_ZN14MHV_RingBuffer8peekHeadEv+0x2a>
    1926:	2f ef       	ldi	r18, 0xFF	; 255
    1928:	3f ef       	ldi	r19, 0xFF	; 255
    192a:	c9 01       	movw	r24, r18
    192c:	08 95       	ret

0000192e <_ZN10MHV_Timer8C1E14mhv_timer_typePVhS2_S2_S2_S2_S2_h>:
    192e:	8f 92       	push	r8
    1930:	af 92       	push	r10
    1932:	bf 92       	push	r11
    1934:	cf 92       	push	r12
    1936:	df 92       	push	r13
    1938:	ef 92       	push	r14
    193a:	ff 92       	push	r15
    193c:	0f 93       	push	r16
    193e:	1f 93       	push	r17
    1940:	df 93       	push	r29
    1942:	cf 93       	push	r28
    1944:	cd b7       	in	r28, 0x3d	; 61
    1946:	de b7       	in	r29, 0x3e	; 62
    1948:	fc 01       	movw	r30, r24
    194a:	51 83       	std	Z+1, r21	; 0x01
    194c:	40 83       	st	Z, r20
    194e:	33 83       	std	Z+3, r19	; 0x03
    1950:	22 83       	std	Z+2, r18	; 0x02
    1952:	15 83       	std	Z+5, r17	; 0x05
    1954:	04 83       	std	Z+4, r16	; 0x04
    1956:	f7 82       	std	Z+7, r15	; 0x07
    1958:	e6 82       	std	Z+6, r14	; 0x06
    195a:	d1 86       	std	Z+9, r13	; 0x09
    195c:	c0 86       	std	Z+8, r12	; 0x08
    195e:	b3 86       	std	Z+11, r11	; 0x0b
    1960:	a2 86       	std	Z+10, r10	; 0x0a
    1962:	84 86       	std	Z+12, r8	; 0x0c
    1964:	81 e0       	ldi	r24, 0x01	; 1
    1966:	86 87       	std	Z+14, r24	; 0x0e
    1968:	67 87       	std	Z+15, r22	; 0x0f
    196a:	88 e0       	ldi	r24, 0x08	; 8
    196c:	80 8b       	std	Z+16, r24	; 0x10
    196e:	15 86       	std	Z+13, r1	; 0x0d
    1970:	11 8a       	std	Z+17, r1	; 0x11
    1972:	15 8a       	std	Z+21, r1	; 0x15
    1974:	14 8a       	std	Z+20, r1	; 0x14
    1976:	11 8e       	std	Z+25, r1	; 0x19
    1978:	10 8e       	std	Z+24, r1	; 0x18
    197a:	13 8a       	std	Z+19, r1	; 0x13
    197c:	12 8a       	std	Z+18, r1	; 0x12
    197e:	17 8a       	std	Z+23, r1	; 0x17
    1980:	16 8a       	std	Z+22, r1	; 0x16
    1982:	cf 91       	pop	r28
    1984:	df 91       	pop	r29
    1986:	1f 91       	pop	r17
    1988:	0f 91       	pop	r16
    198a:	ff 90       	pop	r15
    198c:	ef 90       	pop	r14
    198e:	df 90       	pop	r13
    1990:	cf 90       	pop	r12
    1992:	bf 90       	pop	r11
    1994:	af 90       	pop	r10
    1996:	8f 90       	pop	r8
    1998:	08 95       	ret

0000199a <_ZN10MHV_Timer813_setPrescalerE19mhv_timer_prescaler>:
    199a:	dc 01       	movw	r26, r24
    199c:	12 96       	adiw	r26, 0x02	; 2
    199e:	ed 91       	ld	r30, X+
    19a0:	fc 91       	ld	r31, X
    19a2:	13 97       	sbiw	r26, 0x03	; 3
    19a4:	80 81       	ld	r24, Z
    19a6:	88 7f       	andi	r24, 0xF8	; 248
    19a8:	68 2b       	or	r22, r24
    19aa:	60 83       	st	Z, r22
    19ac:	08 95       	ret

000019ae <_ZN10MHV_Timer817setGenerationModeEv>:
    19ae:	fc 01       	movw	r30, r24
    19b0:	86 85       	ldd	r24, Z+14	; 0x0e
    19b2:	82 30       	cpi	r24, 0x02	; 2
    19b4:	79 f0       	breq	.+30     	; 0x19d4 <_ZN10MHV_Timer817setGenerationModeEv+0x26>
    19b6:	82 30       	cpi	r24, 0x02	; 2
    19b8:	38 f0       	brcs	.+14     	; 0x19c8 <_ZN10MHV_Timer817setGenerationModeEv+0x1a>
    19ba:	84 30       	cpi	r24, 0x04	; 4
    19bc:	e1 f0       	breq	.+56     	; 0x19f6 <_ZN10MHV_Timer817setGenerationModeEv+0x48>
    19be:	84 30       	cpi	r24, 0x04	; 4
    19c0:	78 f0       	brcs	.+30     	; 0x19e0 <_ZN10MHV_Timer817setGenerationModeEv+0x32>
    19c2:	85 30       	cpi	r24, 0x05	; 5
    19c4:	79 f5       	brne	.+94     	; 0x1a24 <_ZN10MHV_Timer817setGenerationModeEv+0x76>
    19c6:	23 c0       	rjmp	.+70     	; 0x1a0e <_ZN10MHV_Timer817setGenerationModeEv+0x60>
    19c8:	a0 81       	ld	r26, Z
    19ca:	b1 81       	ldd	r27, Z+1	; 0x01
    19cc:	8c 91       	ld	r24, X
    19ce:	8c 7f       	andi	r24, 0xFC	; 252
    19d0:	82 60       	ori	r24, 0x02	; 2
    19d2:	0a c0       	rjmp	.+20     	; 0x19e8 <_ZN10MHV_Timer817setGenerationModeEv+0x3a>
    19d4:	a0 81       	ld	r26, Z
    19d6:	b1 81       	ldd	r27, Z+1	; 0x01
    19d8:	8c 91       	ld	r24, X
    19da:	8c 7f       	andi	r24, 0xFC	; 252
    19dc:	81 60       	ori	r24, 0x01	; 1
    19de:	0f c0       	rjmp	.+30     	; 0x19fe <_ZN10MHV_Timer817setGenerationModeEv+0x50>
    19e0:	a0 81       	ld	r26, Z
    19e2:	b1 81       	ldd	r27, Z+1	; 0x01
    19e4:	8c 91       	ld	r24, X
    19e6:	83 60       	ori	r24, 0x03	; 3
    19e8:	8c 93       	st	X, r24
    19ea:	02 80       	ldd	r0, Z+2	; 0x02
    19ec:	f3 81       	ldd	r31, Z+3	; 0x03
    19ee:	e0 2d       	mov	r30, r0
    19f0:	80 81       	ld	r24, Z
    19f2:	87 7f       	andi	r24, 0xF7	; 247
    19f4:	0a c0       	rjmp	.+20     	; 0x1a0a <_ZN10MHV_Timer817setGenerationModeEv+0x5c>
    19f6:	a0 81       	ld	r26, Z
    19f8:	b1 81       	ldd	r27, Z+1	; 0x01
    19fa:	8c 91       	ld	r24, X
    19fc:	83 60       	ori	r24, 0x03	; 3
    19fe:	8c 93       	st	X, r24
    1a00:	02 80       	ldd	r0, Z+2	; 0x02
    1a02:	f3 81       	ldd	r31, Z+3	; 0x03
    1a04:	e0 2d       	mov	r30, r0
    1a06:	80 81       	ld	r24, Z
    1a08:	88 60       	ori	r24, 0x08	; 8
    1a0a:	80 83       	st	Z, r24
    1a0c:	08 95       	ret
    1a0e:	a0 81       	ld	r26, Z
    1a10:	b1 81       	ldd	r27, Z+1	; 0x01
    1a12:	8c 91       	ld	r24, X
    1a14:	83 60       	ori	r24, 0x03	; 3
    1a16:	8c 93       	st	X, r24
    1a18:	02 80       	ldd	r0, Z+2	; 0x02
    1a1a:	f3 81       	ldd	r31, Z+3	; 0x03
    1a1c:	e0 2d       	mov	r30, r0
    1a1e:	80 81       	ld	r24, Z
    1a20:	87 7f       	andi	r24, 0xF7	; 247
    1a22:	80 83       	st	Z, r24
    1a24:	08 95       	ret

00001a26 <_ZN10MHV_Timer810setPeriodsE19mhv_timer_prescalerhh>:
    1a26:	ef 92       	push	r14
    1a28:	ff 92       	push	r15
    1a2a:	1f 93       	push	r17
    1a2c:	df 93       	push	r29
    1a2e:	cf 93       	push	r28
    1a30:	00 d0       	rcall	.+0      	; 0x1a32 <_ZN10MHV_Timer810setPeriodsE19mhv_timer_prescalerhh+0xc>
    1a32:	cd b7       	in	r28, 0x3d	; 61
    1a34:	de b7       	in	r29, 0x3e	; 62
    1a36:	7c 01       	movw	r14, r24
    1a38:	1f b7       	in	r17, 0x3f	; 63
    1a3a:	f8 94       	cli
    1a3c:	dc 01       	movw	r26, r24
    1a3e:	1d 96       	adiw	r26, 0x0d	; 13
    1a40:	6c 93       	st	X, r22
    1a42:	2a 83       	std	Y+2, r18	; 0x02
    1a44:	49 83       	std	Y+1, r20	; 0x01
    1a46:	0e 94 cd 0c 	call	0x199a	; 0x199a <_ZN10MHV_Timer813_setPrescalerE19mhv_timer_prescaler>
    1a4a:	d7 01       	movw	r26, r14
    1a4c:	18 96       	adiw	r26, 0x08	; 8
    1a4e:	ed 91       	ld	r30, X+
    1a50:	fc 91       	ld	r31, X
    1a52:	19 97       	sbiw	r26, 0x09	; 9
    1a54:	10 82       	st	Z, r1
    1a56:	14 96       	adiw	r26, 0x04	; 4
    1a58:	ed 91       	ld	r30, X+
    1a5a:	fc 91       	ld	r31, X
    1a5c:	15 97       	sbiw	r26, 0x05	; 5
    1a5e:	49 81       	ldd	r20, Y+1	; 0x01
    1a60:	40 83       	st	Z, r20
    1a62:	16 96       	adiw	r26, 0x06	; 6
    1a64:	ed 91       	ld	r30, X+
    1a66:	fc 91       	ld	r31, X
    1a68:	17 97       	sbiw	r26, 0x07	; 7
    1a6a:	2a 81       	ldd	r18, Y+2	; 0x02
    1a6c:	20 83       	st	Z, r18
    1a6e:	1f bf       	out	0x3f, r17	; 63
    1a70:	0f 90       	pop	r0
    1a72:	0f 90       	pop	r0
    1a74:	cf 91       	pop	r28
    1a76:	df 91       	pop	r29
    1a78:	1f 91       	pop	r17
    1a7a:	ff 90       	pop	r15
    1a7c:	ef 90       	pop	r14
    1a7e:	08 95       	ret

00001a80 <_ZN10MHV_Timer86enableEv>:
    1a80:	1f 93       	push	r17
    1a82:	cf 93       	push	r28
    1a84:	df 93       	push	r29
    1a86:	ec 01       	movw	r28, r24
    1a88:	1f b7       	in	r17, 0x3f	; 63
    1a8a:	f8 94       	cli
    1a8c:	e8 85       	ldd	r30, Y+8	; 0x08
    1a8e:	f9 85       	ldd	r31, Y+9	; 0x09
    1a90:	10 82       	st	Z, r1
    1a92:	6d 85       	ldd	r22, Y+13	; 0x0d
    1a94:	0e 94 cd 0c 	call	0x199a	; 0x199a <_ZN10MHV_Timer813_setPrescalerE19mhv_timer_prescaler>
    1a98:	ce 01       	movw	r24, r28
    1a9a:	0e 94 d7 0c 	call	0x19ae	; 0x19ae <_ZN10MHV_Timer817setGenerationModeEv>
    1a9e:	8a 89       	ldd	r24, Y+18	; 0x12
    1aa0:	9b 89       	ldd	r25, Y+19	; 0x13
    1aa2:	00 97       	sbiw	r24, 0x00	; 0
    1aa4:	69 f0       	breq	.+26     	; 0x1ac0 <_ZN10MHV_Timer86enableEv+0x40>
    1aa6:	ea 85       	ldd	r30, Y+10	; 0x0a
    1aa8:	fb 85       	ldd	r31, Y+11	; 0x0b
    1aaa:	20 81       	ld	r18, Z
    1aac:	81 e0       	ldi	r24, 0x01	; 1
    1aae:	90 e0       	ldi	r25, 0x00	; 0
    1ab0:	0c 84       	ldd	r0, Y+12	; 0x0c
    1ab2:	02 c0       	rjmp	.+4      	; 0x1ab8 <_ZN10MHV_Timer86enableEv+0x38>
    1ab4:	88 0f       	add	r24, r24
    1ab6:	99 1f       	adc	r25, r25
    1ab8:	0a 94       	dec	r0
    1aba:	e2 f7       	brpl	.-8      	; 0x1ab4 <_ZN10MHV_Timer86enableEv+0x34>
    1abc:	28 2b       	or	r18, r24
    1abe:	20 83       	st	Z, r18
    1ac0:	ee 81       	ldd	r30, Y+6	; 0x06
    1ac2:	ff 81       	ldd	r31, Y+7	; 0x07
    1ac4:	80 81       	ld	r24, Z
    1ac6:	88 23       	and	r24, r24
    1ac8:	d9 f0       	breq	.+54     	; 0x1b00 <_ZN10MHV_Timer86enableEv+0x80>
    1aca:	8e 89       	ldd	r24, Y+22	; 0x16
    1acc:	9f 89       	ldd	r25, Y+23	; 0x17
    1ace:	00 97       	sbiw	r24, 0x00	; 0
    1ad0:	b9 f0       	breq	.+46     	; 0x1b00 <_ZN10MHV_Timer86enableEv+0x80>
    1ad2:	ea 85       	ldd	r30, Y+10	; 0x0a
    1ad4:	fb 85       	ldd	r31, Y+11	; 0x0b
    1ad6:	40 81       	ld	r20, Z
    1ad8:	2c 85       	ldd	r18, Y+12	; 0x0c
    1ada:	30 e0       	ldi	r19, 0x00	; 0
    1adc:	2f 5f       	subi	r18, 0xFF	; 255
    1ade:	3f 4f       	sbci	r19, 0xFF	; 255
    1ae0:	81 e0       	ldi	r24, 0x01	; 1
    1ae2:	90 e0       	ldi	r25, 0x00	; 0
    1ae4:	02 c0       	rjmp	.+4      	; 0x1aea <_ZN10MHV_Timer86enableEv+0x6a>
    1ae6:	88 0f       	add	r24, r24
    1ae8:	99 1f       	adc	r25, r25
    1aea:	2a 95       	dec	r18
    1aec:	e2 f7       	brpl	.-8      	; 0x1ae6 <_ZN10MHV_Timer86enableEv+0x66>
    1aee:	48 2b       	or	r20, r24
    1af0:	40 83       	st	Z, r20
    1af2:	81 e0       	ldi	r24, 0x01	; 1
    1af4:	89 8b       	std	Y+17, r24	; 0x11
    1af6:	1f bf       	out	0x3f, r17	; 63
    1af8:	df 91       	pop	r29
    1afa:	cf 91       	pop	r28
    1afc:	1f 91       	pop	r17
    1afe:	08 95       	ret
    1b00:	19 8a       	std	Y+17, r1	; 0x11
    1b02:	f9 cf       	rjmp	.-14     	; 0x1af6 <_ZN10MHV_Timer86enableEv+0x76>

00001b04 <_ZN10MHV_Timer87disableEv>:
    1b04:	1f 93       	push	r17
    1b06:	cf 93       	push	r28
    1b08:	df 93       	push	r29
    1b0a:	ec 01       	movw	r28, r24
    1b0c:	1f b7       	in	r17, 0x3f	; 63
    1b0e:	f8 94       	cli
    1b10:	60 e0       	ldi	r22, 0x00	; 0
    1b12:	0e 94 cd 0c 	call	0x199a	; 0x199a <_ZN10MHV_Timer813_setPrescalerE19mhv_timer_prescaler>
    1b16:	ea 85       	ldd	r30, Y+10	; 0x0a
    1b18:	fb 85       	ldd	r31, Y+11	; 0x0b
    1b1a:	40 81       	ld	r20, Z
    1b1c:	21 e0       	ldi	r18, 0x01	; 1
    1b1e:	30 e0       	ldi	r19, 0x00	; 0
    1b20:	c9 01       	movw	r24, r18
    1b22:	0c 84       	ldd	r0, Y+12	; 0x0c
    1b24:	02 c0       	rjmp	.+4      	; 0x1b2a <_ZN10MHV_Timer87disableEv+0x26>
    1b26:	88 0f       	add	r24, r24
    1b28:	99 1f       	adc	r25, r25
    1b2a:	0a 94       	dec	r0
    1b2c:	e2 f7       	brpl	.-8      	; 0x1b26 <_ZN10MHV_Timer87disableEv+0x22>
    1b2e:	80 95       	com	r24
    1b30:	84 23       	and	r24, r20
    1b32:	80 83       	st	Z, r24
    1b34:	89 89       	ldd	r24, Y+17	; 0x11
    1b36:	88 23       	and	r24, r24
    1b38:	81 f0       	breq	.+32     	; 0x1b5a <_ZN10MHV_Timer87disableEv+0x56>
    1b3a:	ea 85       	ldd	r30, Y+10	; 0x0a
    1b3c:	fb 85       	ldd	r31, Y+11	; 0x0b
    1b3e:	40 81       	ld	r20, Z
    1b40:	8c 85       	ldd	r24, Y+12	; 0x0c
    1b42:	90 e0       	ldi	r25, 0x00	; 0
    1b44:	01 96       	adiw	r24, 0x01	; 1
    1b46:	b9 01       	movw	r22, r18
    1b48:	02 c0       	rjmp	.+4      	; 0x1b4e <_ZN10MHV_Timer87disableEv+0x4a>
    1b4a:	66 0f       	add	r22, r22
    1b4c:	77 1f       	adc	r23, r23
    1b4e:	8a 95       	dec	r24
    1b50:	e2 f7       	brpl	.-8      	; 0x1b4a <_ZN10MHV_Timer87disableEv+0x46>
    1b52:	cb 01       	movw	r24, r22
    1b54:	80 95       	com	r24
    1b56:	84 23       	and	r24, r20
    1b58:	80 83       	st	Z, r24
    1b5a:	1f bf       	out	0x3f, r17	; 63
    1b5c:	df 91       	pop	r29
    1b5e:	cf 91       	pop	r28
    1b60:	1f 91       	pop	r17
    1b62:	08 95       	ret

00001b64 <_ZN10MHV_Timer88trigger1Ev>:
    1b64:	cf 93       	push	r28
    1b66:	df 93       	push	r29
    1b68:	ec 01       	movw	r28, r24
    1b6a:	8e 85       	ldd	r24, Y+14	; 0x0e
    1b6c:	88 23       	and	r24, r24
    1b6e:	19 f4       	brne	.+6      	; 0x1b76 <_ZN10MHV_Timer88trigger1Ev+0x12>
    1b70:	ce 01       	movw	r24, r28
    1b72:	0e 94 82 0d 	call	0x1b04	; 0x1b04 <_ZN10MHV_Timer87disableEv>
    1b76:	ea 89       	ldd	r30, Y+18	; 0x12
    1b78:	fb 89       	ldd	r31, Y+19	; 0x13
    1b7a:	8c 89       	ldd	r24, Y+20	; 0x14
    1b7c:	9d 89       	ldd	r25, Y+21	; 0x15
    1b7e:	09 95       	icall
    1b80:	df 91       	pop	r29
    1b82:	cf 91       	pop	r28
    1b84:	08 95       	ret

00001b86 <_ZN10MHV_Timer811setTriggersEPFvPvES0_S2_S0_>:
    1b86:	0f 93       	push	r16
    1b88:	1f 93       	push	r17
    1b8a:	fc 01       	movw	r30, r24
    1b8c:	73 8b       	std	Z+19, r23	; 0x13
    1b8e:	62 8b       	std	Z+18, r22	; 0x12
    1b90:	55 8b       	std	Z+21, r21	; 0x15
    1b92:	44 8b       	std	Z+20, r20	; 0x14
    1b94:	37 8b       	std	Z+23, r19	; 0x17
    1b96:	26 8b       	std	Z+22, r18	; 0x16
    1b98:	11 8f       	std	Z+25, r17	; 0x19
    1b9a:	00 8f       	std	Z+24, r16	; 0x18
    1b9c:	1f 91       	pop	r17
    1b9e:	0f 91       	pop	r16
    1ba0:	08 95       	ret

00001ba2 <__mulsi3>:
    1ba2:	62 9f       	mul	r22, r18
    1ba4:	d0 01       	movw	r26, r0
    1ba6:	73 9f       	mul	r23, r19
    1ba8:	f0 01       	movw	r30, r0
    1baa:	82 9f       	mul	r24, r18
    1bac:	e0 0d       	add	r30, r0
    1bae:	f1 1d       	adc	r31, r1
    1bb0:	64 9f       	mul	r22, r20
    1bb2:	e0 0d       	add	r30, r0
    1bb4:	f1 1d       	adc	r31, r1
    1bb6:	92 9f       	mul	r25, r18
    1bb8:	f0 0d       	add	r31, r0
    1bba:	83 9f       	mul	r24, r19
    1bbc:	f0 0d       	add	r31, r0
    1bbe:	74 9f       	mul	r23, r20
    1bc0:	f0 0d       	add	r31, r0
    1bc2:	65 9f       	mul	r22, r21
    1bc4:	f0 0d       	add	r31, r0
    1bc6:	99 27       	eor	r25, r25
    1bc8:	72 9f       	mul	r23, r18
    1bca:	b0 0d       	add	r27, r0
    1bcc:	e1 1d       	adc	r30, r1
    1bce:	f9 1f       	adc	r31, r25
    1bd0:	63 9f       	mul	r22, r19
    1bd2:	b0 0d       	add	r27, r0
    1bd4:	e1 1d       	adc	r30, r1
    1bd6:	f9 1f       	adc	r31, r25
    1bd8:	bd 01       	movw	r22, r26
    1bda:	cf 01       	movw	r24, r30
    1bdc:	11 24       	eor	r1, r1
    1bde:	08 95       	ret

00001be0 <__udivmodhi4>:
    1be0:	aa 1b       	sub	r26, r26
    1be2:	bb 1b       	sub	r27, r27
    1be4:	51 e1       	ldi	r21, 0x11	; 17
    1be6:	07 c0       	rjmp	.+14     	; 0x1bf6 <__udivmodhi4_ep>

00001be8 <__udivmodhi4_loop>:
    1be8:	aa 1f       	adc	r26, r26
    1bea:	bb 1f       	adc	r27, r27
    1bec:	a6 17       	cp	r26, r22
    1bee:	b7 07       	cpc	r27, r23
    1bf0:	10 f0       	brcs	.+4      	; 0x1bf6 <__udivmodhi4_ep>
    1bf2:	a6 1b       	sub	r26, r22
    1bf4:	b7 0b       	sbc	r27, r23

00001bf6 <__udivmodhi4_ep>:
    1bf6:	88 1f       	adc	r24, r24
    1bf8:	99 1f       	adc	r25, r25
    1bfa:	5a 95       	dec	r21
    1bfc:	a9 f7       	brne	.-22     	; 0x1be8 <__udivmodhi4_loop>
    1bfe:	80 95       	com	r24
    1c00:	90 95       	com	r25
    1c02:	bc 01       	movw	r22, r24
    1c04:	cd 01       	movw	r24, r26
    1c06:	08 95       	ret

00001c08 <__udivmodsi4>:
    1c08:	a1 e2       	ldi	r26, 0x21	; 33
    1c0a:	1a 2e       	mov	r1, r26
    1c0c:	aa 1b       	sub	r26, r26
    1c0e:	bb 1b       	sub	r27, r27
    1c10:	fd 01       	movw	r30, r26
    1c12:	0d c0       	rjmp	.+26     	; 0x1c2e <__udivmodsi4_ep>

00001c14 <__udivmodsi4_loop>:
    1c14:	aa 1f       	adc	r26, r26
    1c16:	bb 1f       	adc	r27, r27
    1c18:	ee 1f       	adc	r30, r30
    1c1a:	ff 1f       	adc	r31, r31
    1c1c:	a2 17       	cp	r26, r18
    1c1e:	b3 07       	cpc	r27, r19
    1c20:	e4 07       	cpc	r30, r20
    1c22:	f5 07       	cpc	r31, r21
    1c24:	20 f0       	brcs	.+8      	; 0x1c2e <__udivmodsi4_ep>
    1c26:	a2 1b       	sub	r26, r18
    1c28:	b3 0b       	sbc	r27, r19
    1c2a:	e4 0b       	sbc	r30, r20
    1c2c:	f5 0b       	sbc	r31, r21

00001c2e <__udivmodsi4_ep>:
    1c2e:	66 1f       	adc	r22, r22
    1c30:	77 1f       	adc	r23, r23
    1c32:	88 1f       	adc	r24, r24
    1c34:	99 1f       	adc	r25, r25
    1c36:	1a 94       	dec	r1
    1c38:	69 f7       	brne	.-38     	; 0x1c14 <__udivmodsi4_loop>
    1c3a:	60 95       	com	r22
    1c3c:	70 95       	com	r23
    1c3e:	80 95       	com	r24
    1c40:	90 95       	com	r25
    1c42:	9b 01       	movw	r18, r22
    1c44:	ac 01       	movw	r20, r24
    1c46:	bd 01       	movw	r22, r26
    1c48:	cf 01       	movw	r24, r30
    1c4a:	08 95       	ret

00001c4c <__tablejump_elpm__>:
    1c4c:	07 90       	elpm	r0, Z+
    1c4e:	f6 91       	elpm	r31, Z
    1c50:	e0 2d       	mov	r30, r0
    1c52:	09 94       	ijmp

00001c54 <atoi>:
    1c54:	fc 01       	movw	r30, r24
    1c56:	88 27       	eor	r24, r24
    1c58:	99 27       	eor	r25, r25
    1c5a:	e8 94       	clt
    1c5c:	21 91       	ld	r18, Z+
    1c5e:	20 32       	cpi	r18, 0x20	; 32
    1c60:	e9 f3       	breq	.-6      	; 0x1c5c <atoi+0x8>
    1c62:	29 30       	cpi	r18, 0x09	; 9
    1c64:	10 f0       	brcs	.+4      	; 0x1c6a <atoi+0x16>
    1c66:	2e 30       	cpi	r18, 0x0E	; 14
    1c68:	c8 f3       	brcs	.-14     	; 0x1c5c <atoi+0x8>
    1c6a:	2b 32       	cpi	r18, 0x2B	; 43
    1c6c:	41 f0       	breq	.+16     	; 0x1c7e <atoi+0x2a>
    1c6e:	2d 32       	cpi	r18, 0x2D	; 45
    1c70:	39 f4       	brne	.+14     	; 0x1c80 <atoi+0x2c>
    1c72:	68 94       	set
    1c74:	04 c0       	rjmp	.+8      	; 0x1c7e <atoi+0x2a>
    1c76:	0e 94 7b 0e 	call	0x1cf6	; 0x1cf6 <__mulhi_const_10>
    1c7a:	82 0f       	add	r24, r18
    1c7c:	91 1d       	adc	r25, r1
    1c7e:	21 91       	ld	r18, Z+
    1c80:	20 53       	subi	r18, 0x30	; 48
    1c82:	2a 30       	cpi	r18, 0x0A	; 10
    1c84:	c0 f3       	brcs	.-16     	; 0x1c76 <atoi+0x22>
    1c86:	1e f4       	brtc	.+6      	; 0x1c8e <atoi+0x3a>
    1c88:	90 95       	com	r25
    1c8a:	81 95       	neg	r24
    1c8c:	9f 4f       	sbci	r25, 0xFF	; 255
    1c8e:	08 95       	ret

00001c90 <memmove>:
    1c90:	68 17       	cp	r22, r24
    1c92:	79 07       	cpc	r23, r25
    1c94:	68 f4       	brcc	.+26     	; 0x1cb0 <memmove+0x20>
    1c96:	fb 01       	movw	r30, r22
    1c98:	dc 01       	movw	r26, r24
    1c9a:	e4 0f       	add	r30, r20
    1c9c:	f5 1f       	adc	r31, r21
    1c9e:	a4 0f       	add	r26, r20
    1ca0:	b5 1f       	adc	r27, r21
    1ca2:	02 c0       	rjmp	.+4      	; 0x1ca8 <memmove+0x18>
    1ca4:	02 90       	ld	r0, -Z
    1ca6:	0e 92       	st	-X, r0
    1ca8:	41 50       	subi	r20, 0x01	; 1
    1caa:	50 40       	sbci	r21, 0x00	; 0
    1cac:	d8 f7       	brcc	.-10     	; 0x1ca4 <memmove+0x14>
    1cae:	08 95       	ret
    1cb0:	0c 94 dc 10 	jmp	0x21b8	; 0x21b8 <memcpy>

00001cb4 <itoa>:
    1cb4:	fb 01       	movw	r30, r22
    1cb6:	9f 01       	movw	r18, r30
    1cb8:	e8 94       	clt
    1cba:	42 30       	cpi	r20, 0x02	; 2
    1cbc:	c4 f0       	brlt	.+48     	; 0x1cee <itoa+0x3a>
    1cbe:	45 32       	cpi	r20, 0x25	; 37
    1cc0:	b4 f4       	brge	.+44     	; 0x1cee <itoa+0x3a>
    1cc2:	4a 30       	cpi	r20, 0x0A	; 10
    1cc4:	29 f4       	brne	.+10     	; 0x1cd0 <itoa+0x1c>
    1cc6:	97 fb       	bst	r25, 7
    1cc8:	1e f4       	brtc	.+6      	; 0x1cd0 <itoa+0x1c>
    1cca:	90 95       	com	r25
    1ccc:	81 95       	neg	r24
    1cce:	9f 4f       	sbci	r25, 0xFF	; 255
    1cd0:	64 2f       	mov	r22, r20
    1cd2:	77 27       	eor	r23, r23
    1cd4:	0e 94 f0 0d 	call	0x1be0	; 0x1be0 <__udivmodhi4>
    1cd8:	80 5d       	subi	r24, 0xD0	; 208
    1cda:	8a 33       	cpi	r24, 0x3A	; 58
    1cdc:	0c f0       	brlt	.+2      	; 0x1ce0 <itoa+0x2c>
    1cde:	89 5d       	subi	r24, 0xD9	; 217
    1ce0:	81 93       	st	Z+, r24
    1ce2:	cb 01       	movw	r24, r22
    1ce4:	00 97       	sbiw	r24, 0x00	; 0
    1ce6:	a1 f7       	brne	.-24     	; 0x1cd0 <itoa+0x1c>
    1ce8:	16 f4       	brtc	.+4      	; 0x1cee <itoa+0x3a>
    1cea:	5d e2       	ldi	r21, 0x2D	; 45
    1cec:	51 93       	st	Z+, r21
    1cee:	10 82       	st	Z, r1
    1cf0:	c9 01       	movw	r24, r18
    1cf2:	0c 94 f0 10 	jmp	0x21e0	; 0x21e0 <strrev>

00001cf6 <__mulhi_const_10>:
    1cf6:	7a e0       	ldi	r23, 0x0A	; 10
    1cf8:	97 9f       	mul	r25, r23
    1cfa:	90 2d       	mov	r25, r0
    1cfc:	87 9f       	mul	r24, r23
    1cfe:	80 2d       	mov	r24, r0
    1d00:	91 0d       	add	r25, r1
    1d02:	11 24       	eor	r1, r1
    1d04:	08 95       	ret

00001d06 <snprintf_P>:
#include "sectionname.h"

ATTRIBUTE_CLIB_SECTION
int
snprintf_P(char *s, size_t n, const char *fmt, ...)
{
    1d06:	0f 93       	push	r16
    1d08:	1f 93       	push	r17
    1d0a:	df 93       	push	r29
    1d0c:	cf 93       	push	r28
    1d0e:	cd b7       	in	r28, 0x3d	; 61
    1d10:	de b7       	in	r29, 0x3e	; 62
    1d12:	2e 97       	sbiw	r28, 0x0e	; 14
    1d14:	0f b6       	in	r0, 0x3f	; 63
    1d16:	f8 94       	cli
    1d18:	de bf       	out	0x3e, r29	; 62
    1d1a:	0f be       	out	0x3f, r0	; 63
    1d1c:	cd bf       	out	0x3d, r28	; 61
    1d1e:	0d 89       	ldd	r16, Y+21	; 0x15
    1d20:	1e 89       	ldd	r17, Y+22	; 0x16
    1d22:	8f 89       	ldd	r24, Y+23	; 0x17
    1d24:	98 8d       	ldd	r25, Y+24	; 0x18
	va_list ap;
	FILE f;
	int i;

	f.flags = __SWR | __SSTR | __SPGM;
    1d26:	2e e0       	ldi	r18, 0x0E	; 14
    1d28:	2c 83       	std	Y+4, r18	; 0x04
	f.buf = s;
    1d2a:	1a 83       	std	Y+2, r17	; 0x02
    1d2c:	09 83       	std	Y+1, r16	; 0x01
	/* Restrict max output length to 32767, as snprintf() return
	   signed int. The fputc() function uses a signed comparison
	   between estimated len and f.size field. So we can write a
	   negative value into f.size in the case of n was 0. Note,
	   that f.size will be a max number of nonzero symbols.	*/
	if ((int)n < 0)
    1d2e:	97 ff       	sbrs	r25, 7
    1d30:	02 c0       	rjmp	.+4      	; 0x1d36 <snprintf_P+0x30>
		n = (unsigned)INT_MAX + 1;		/* 32768 */
    1d32:	80 e0       	ldi	r24, 0x00	; 0
    1d34:	90 e8       	ldi	r25, 0x80	; 128
	f.size = n - 1;				/* -1,0,...32767 */
    1d36:	01 97       	sbiw	r24, 0x01	; 1
    1d38:	9e 83       	std	Y+6, r25	; 0x06
    1d3a:	8d 83       	std	Y+5, r24	; 0x05

	va_start(ap, fmt);
    1d3c:	9e 01       	movw	r18, r28
    1d3e:	25 5e       	subi	r18, 0xE5	; 229
    1d40:	3f 4f       	sbci	r19, 0xFF	; 255
	i = vfprintf(&f, fmt, ap);
    1d42:	ce 01       	movw	r24, r28
    1d44:	01 96       	adiw	r24, 0x01	; 1
    1d46:	69 8d       	ldd	r22, Y+25	; 0x19
    1d48:	7a 8d       	ldd	r23, Y+26	; 0x1a
    1d4a:	a9 01       	movw	r20, r18
    1d4c:	0e 94 c1 0e 	call	0x1d82	; 0x1d82 <vfprintf>
	va_end(ap);

	/* We use f.size (not 'n') as this is more effective: two 'ld'
	   instructions vs. two 'push+pop' and 'movw'.	*/
	if (f.size >= 0)
    1d50:	4d 81       	ldd	r20, Y+5	; 0x05
    1d52:	5e 81       	ldd	r21, Y+6	; 0x06
    1d54:	57 fd       	sbrc	r21, 7
    1d56:	0a c0       	rjmp	.+20     	; 0x1d6c <snprintf_P+0x66>
		s[f.len < f.size ? f.len : f.size] = 0;
    1d58:	2f 81       	ldd	r18, Y+7	; 0x07
    1d5a:	38 85       	ldd	r19, Y+8	; 0x08
    1d5c:	42 17       	cp	r20, r18
    1d5e:	53 07       	cpc	r21, r19
    1d60:	0c f4       	brge	.+2      	; 0x1d64 <snprintf_P+0x5e>
    1d62:	9a 01       	movw	r18, r20
    1d64:	02 0f       	add	r16, r18
    1d66:	13 1f       	adc	r17, r19
    1d68:	f8 01       	movw	r30, r16
    1d6a:	10 82       	st	Z, r1

	return i;
}
    1d6c:	2e 96       	adiw	r28, 0x0e	; 14
    1d6e:	0f b6       	in	r0, 0x3f	; 63
    1d70:	f8 94       	cli
    1d72:	de bf       	out	0x3e, r29	; 62
    1d74:	0f be       	out	0x3f, r0	; 63
    1d76:	cd bf       	out	0x3d, r28	; 61
    1d78:	cf 91       	pop	r28
    1d7a:	df 91       	pop	r29
    1d7c:	1f 91       	pop	r17
    1d7e:	0f 91       	pop	r16
    1d80:	08 95       	ret

00001d82 <vfprintf>:
#define FL_FLTEXP	FL_PREC
#define	FL_FLTFIX	FL_LONG

ATTRIBUTE_CLIB_SECTION
int vfprintf (FILE * stream, const char *fmt, va_list ap)
{
    1d82:	2f 92       	push	r2
    1d84:	3f 92       	push	r3
    1d86:	4f 92       	push	r4
    1d88:	5f 92       	push	r5
    1d8a:	6f 92       	push	r6
    1d8c:	7f 92       	push	r7
    1d8e:	8f 92       	push	r8
    1d90:	9f 92       	push	r9
    1d92:	af 92       	push	r10
    1d94:	bf 92       	push	r11
    1d96:	cf 92       	push	r12
    1d98:	df 92       	push	r13
    1d9a:	ef 92       	push	r14
    1d9c:	ff 92       	push	r15
    1d9e:	0f 93       	push	r16
    1da0:	1f 93       	push	r17
    1da2:	df 93       	push	r29
    1da4:	cf 93       	push	r28
    1da6:	cd b7       	in	r28, 0x3d	; 61
    1da8:	de b7       	in	r29, 0x3e	; 62
    1daa:	2c 97       	sbiw	r28, 0x0c	; 12
    1dac:	0f b6       	in	r0, 0x3f	; 63
    1dae:	f8 94       	cli
    1db0:	de bf       	out	0x3e, r29	; 62
    1db2:	0f be       	out	0x3f, r0	; 63
    1db4:	cd bf       	out	0x3d, r28	; 61
    1db6:	6c 01       	movw	r12, r24
    1db8:	1b 01       	movw	r2, r22
    1dba:	8a 01       	movw	r16, r20
    unsigned char flags;
    unsigned char width;
    unsigned char prec;
    unsigned char buf[11];	/* size for -1 in octal, without '\0'	*/

    stream->len = 0;
    1dbc:	fc 01       	movw	r30, r24
    1dbe:	17 82       	std	Z+7, r1	; 0x07
    1dc0:	16 82       	std	Z+6, r1	; 0x06

    if ((stream->flags & __SWR) == 0)
    1dc2:	83 81       	ldd	r24, Z+3	; 0x03
    1dc4:	81 ff       	sbrs	r24, 1
    1dc6:	d1 c1       	rjmp	.+930    	; 0x216a <vfprintf+0x3e8>
	      case 'c':
		buf[0] = va_arg (ap, int);
#if  PRINTF_LEVEL < PRINTF_FLT
	      buf_addr:
#endif
		pnt = (char *)buf;
    1dc8:	2e 01       	movw	r4, r28
    1dca:	08 94       	sec
    1dcc:	41 1c       	adc	r4, r1
    1dce:	51 1c       	adc	r5, r1
	return EOF;

    for (;;) {

	for (;;) {
	    c = GETBYTE (stream->flags, __SPGM, fmt);
    1dd0:	f6 01       	movw	r30, r12
    1dd2:	93 81       	ldd	r25, Z+3	; 0x03
    1dd4:	f1 01       	movw	r30, r2
    1dd6:	93 fd       	sbrc	r25, 3
    1dd8:	85 91       	lpm	r24, Z+
    1dda:	93 ff       	sbrs	r25, 3
    1ddc:	81 91       	ld	r24, Z+
    1dde:	1f 01       	movw	r2, r30
	    if (!c) goto ret;
    1de0:	88 23       	and	r24, r24
    1de2:	09 f4       	brne	.+2      	; 0x1de6 <vfprintf+0x64>
    1de4:	be c1       	rjmp	.+892    	; 0x2162 <vfprintf+0x3e0>
	    if (c == '%') {
    1de6:	85 32       	cpi	r24, 0x25	; 37
    1de8:	39 f4       	brne	.+14     	; 0x1df8 <vfprintf+0x76>
		c = GETBYTE (stream->flags, __SPGM, fmt);
    1dea:	93 fd       	sbrc	r25, 3
    1dec:	85 91       	lpm	r24, Z+
    1dee:	93 ff       	sbrs	r25, 3
    1df0:	81 91       	ld	r24, Z+
    1df2:	1f 01       	movw	r2, r30
		if (c != '%') break;
    1df4:	85 32       	cpi	r24, 0x25	; 37
    1df6:	29 f4       	brne	.+10     	; 0x1e02 <vfprintf+0x80>
	    }
	    putc (c, stream);
    1df8:	90 e0       	ldi	r25, 0x00	; 0
    1dfa:	b6 01       	movw	r22, r12
    1dfc:	0e 94 00 11 	call	0x2200	; 0x2200 <fputc>
	}
    1e00:	e7 cf       	rjmp	.-50     	; 0x1dd0 <vfprintf+0x4e>
	for (;;) {
	    c = GETBYTE (stream->flags, __SPGM, fmt);
	    if (!c) goto ret;
	    if (c == '%') {
		c = GETBYTE (stream->flags, __SPGM, fmt);
		if (c != '%') break;
    1e02:	ee 24       	eor	r14, r14
    1e04:	ff 24       	eor	r15, r15
    1e06:	20 e0       	ldi	r18, 0x00	; 0
	flags = 0;
	width = 0;
	prec = 0;
	
	do {
	    if (flags < FL_WIDTH) {
    1e08:	20 32       	cpi	r18, 0x20	; 32
    1e0a:	b0 f4       	brcc	.+44     	; 0x1e38 <vfprintf+0xb6>
		switch (c) {
    1e0c:	8b 32       	cpi	r24, 0x2B	; 43
    1e0e:	69 f0       	breq	.+26     	; 0x1e2a <vfprintf+0xa8>
    1e10:	8c 32       	cpi	r24, 0x2C	; 44
    1e12:	28 f4       	brcc	.+10     	; 0x1e1e <vfprintf+0x9c>
    1e14:	80 32       	cpi	r24, 0x20	; 32
    1e16:	51 f0       	breq	.+20     	; 0x1e2c <vfprintf+0xaa>
    1e18:	83 32       	cpi	r24, 0x23	; 35
    1e1a:	71 f4       	brne	.+28     	; 0x1e38 <vfprintf+0xb6>
    1e1c:	0b c0       	rjmp	.+22     	; 0x1e34 <vfprintf+0xb2>
    1e1e:	8d 32       	cpi	r24, 0x2D	; 45
    1e20:	39 f0       	breq	.+14     	; 0x1e30 <vfprintf+0xae>
    1e22:	80 33       	cpi	r24, 0x30	; 48
    1e24:	49 f4       	brne	.+18     	; 0x1e38 <vfprintf+0xb6>
		  case '0':
		    flags |= FL_ZFILL;
    1e26:	21 60       	ori	r18, 0x01	; 1
		    continue;
    1e28:	2c c0       	rjmp	.+88     	; 0x1e82 <vfprintf+0x100>
		  case '+':
		    flags |= FL_PLUS;
    1e2a:	22 60       	ori	r18, 0x02	; 2
		    /* FALLTHROUGH */
		  case ' ':
		    flags |= FL_SPACE;
    1e2c:	24 60       	ori	r18, 0x04	; 4
		    continue;
    1e2e:	29 c0       	rjmp	.+82     	; 0x1e82 <vfprintf+0x100>
		  case '-':
		    flags |= FL_LPAD;
    1e30:	28 60       	ori	r18, 0x08	; 8
		    continue;
    1e32:	27 c0       	rjmp	.+78     	; 0x1e82 <vfprintf+0x100>
		  case '#':
		    flags |= FL_ALT;
    1e34:	20 61       	ori	r18, 0x10	; 16
		    continue;
    1e36:	25 c0       	rjmp	.+74     	; 0x1e82 <vfprintf+0x100>
		}
	    }

	    if (flags < FL_LONG) {
    1e38:	27 fd       	sbrc	r18, 7
    1e3a:	2c c0       	rjmp	.+88     	; 0x1e94 <vfprintf+0x112>
		if (c >= '0' && c <= '9') {
    1e3c:	38 2f       	mov	r19, r24
    1e3e:	30 53       	subi	r19, 0x30	; 48
    1e40:	3a 30       	cpi	r19, 0x0A	; 10
    1e42:	98 f4       	brcc	.+38     	; 0x1e6a <vfprintf+0xe8>
		    c -= '0';
		    if (flags & FL_PREC) {
    1e44:	26 ff       	sbrs	r18, 6
    1e46:	08 c0       	rjmp	.+16     	; 0x1e58 <vfprintf+0xd6>
			prec = 10*prec + c;
    1e48:	8e 2d       	mov	r24, r14
    1e4a:	88 0f       	add	r24, r24
    1e4c:	e8 2e       	mov	r14, r24
    1e4e:	ee 0c       	add	r14, r14
    1e50:	ee 0c       	add	r14, r14
    1e52:	e8 0e       	add	r14, r24
    1e54:	e3 0e       	add	r14, r19
			continue;
    1e56:	15 c0       	rjmp	.+42     	; 0x1e82 <vfprintf+0x100>
		    }
		    width = 10*width + c;
    1e58:	8f 2d       	mov	r24, r15
    1e5a:	88 0f       	add	r24, r24
    1e5c:	f8 2e       	mov	r15, r24
    1e5e:	ff 0c       	add	r15, r15
    1e60:	ff 0c       	add	r15, r15
    1e62:	f8 0e       	add	r15, r24
    1e64:	f3 0e       	add	r15, r19
		    flags |= FL_WIDTH;
    1e66:	20 62       	ori	r18, 0x20	; 32
		    continue;
    1e68:	0c c0       	rjmp	.+24     	; 0x1e82 <vfprintf+0x100>
		}
		if (c == '.') {
    1e6a:	8e 32       	cpi	r24, 0x2E	; 46
    1e6c:	21 f4       	brne	.+8      	; 0x1e76 <vfprintf+0xf4>
		    if (flags & FL_PREC)
    1e6e:	26 fd       	sbrc	r18, 6
    1e70:	78 c1       	rjmp	.+752    	; 0x2162 <vfprintf+0x3e0>
			goto ret;
		    flags |= FL_PREC;
    1e72:	20 64       	ori	r18, 0x40	; 64
		    continue;
    1e74:	06 c0       	rjmp	.+12     	; 0x1e82 <vfprintf+0x100>
		}
		if (c == 'l') {
    1e76:	8c 36       	cpi	r24, 0x6C	; 108
    1e78:	11 f4       	brne	.+4      	; 0x1e7e <vfprintf+0xfc>
		    flags |= FL_LONG;
    1e7a:	20 68       	ori	r18, 0x80	; 128
		    continue;
    1e7c:	02 c0       	rjmp	.+4      	; 0x1e82 <vfprintf+0x100>
		}
		if (c == 'h')
    1e7e:	88 36       	cpi	r24, 0x68	; 104
    1e80:	49 f4       	brne	.+18     	; 0x1e94 <vfprintf+0x112>
		    continue;
	    }
	    
	    break;
	} while ( (c = GETBYTE (stream->flags, __SPGM, fmt)) != 0);
    1e82:	f1 01       	movw	r30, r2
    1e84:	93 fd       	sbrc	r25, 3
    1e86:	85 91       	lpm	r24, Z+
    1e88:	93 ff       	sbrs	r25, 3
    1e8a:	81 91       	ld	r24, Z+
    1e8c:	1f 01       	movw	r2, r30
    1e8e:	88 23       	and	r24, r24
    1e90:	09 f0       	breq	.+2      	; 0x1e94 <vfprintf+0x112>
    1e92:	ba cf       	rjmp	.-140    	; 0x1e08 <vfprintf+0x86>
	    goto tail;
# undef ndigs
	}

#else		/* to: PRINTF_LEVEL >= PRINTF_FLT */
	if ((c >= 'E' && c <= 'G') || (c >= 'e' && c <= 'g')) {
    1e94:	98 2f       	mov	r25, r24
    1e96:	95 54       	subi	r25, 0x45	; 69
    1e98:	93 30       	cpi	r25, 0x03	; 3
    1e9a:	18 f0       	brcs	.+6      	; 0x1ea2 <vfprintf+0x120>
    1e9c:	90 52       	subi	r25, 0x20	; 32
    1e9e:	93 30       	cpi	r25, 0x03	; 3
    1ea0:	28 f4       	brcc	.+10     	; 0x1eac <vfprintf+0x12a>
	    (void) va_arg (ap, double);
    1ea2:	0c 5f       	subi	r16, 0xFC	; 252
    1ea4:	1f 4f       	sbci	r17, 0xFF	; 255
	    buf[0] = '?';
    1ea6:	ff e3       	ldi	r31, 0x3F	; 63
    1ea8:	f9 83       	std	Y+1, r31	; 0x01
	    goto buf_addr;
    1eaa:	0d c0       	rjmp	.+26     	; 0x1ec6 <vfprintf+0x144>

	{
	    const char * pnt;
	    size_t size;

	    switch (c) {
    1eac:	83 36       	cpi	r24, 0x63	; 99
    1eae:	31 f0       	breq	.+12     	; 0x1ebc <vfprintf+0x13a>
    1eb0:	83 37       	cpi	r24, 0x73	; 115
    1eb2:	71 f0       	breq	.+28     	; 0x1ed0 <vfprintf+0x14e>
    1eb4:	83 35       	cpi	r24, 0x53	; 83
    1eb6:	09 f0       	breq	.+2      	; 0x1eba <vfprintf+0x138>
    1eb8:	60 c0       	rjmp	.+192    	; 0x1f7a <vfprintf+0x1f8>
    1eba:	22 c0       	rjmp	.+68     	; 0x1f00 <vfprintf+0x17e>

	      case 'c':
		buf[0] = va_arg (ap, int);
    1ebc:	f8 01       	movw	r30, r16
    1ebe:	80 81       	ld	r24, Z
    1ec0:	89 83       	std	Y+1, r24	; 0x01
    1ec2:	0e 5f       	subi	r16, 0xFE	; 254
    1ec4:	1f 4f       	sbci	r17, 0xFF	; 255
#if  PRINTF_LEVEL < PRINTF_FLT
	      buf_addr:
#endif
		pnt = (char *)buf;
    1ec6:	42 01       	movw	r8, r4
		size = 1;
    1ec8:	71 e0       	ldi	r23, 0x01	; 1
    1eca:	a7 2e       	mov	r10, r23
    1ecc:	b1 2c       	mov	r11, r1
		goto no_pgmstring;
    1ece:	16 c0       	rjmp	.+44     	; 0x1efc <vfprintf+0x17a>

	      case 's':
		pnt = va_arg (ap, char *);
    1ed0:	62 e0       	ldi	r22, 0x02	; 2
    1ed2:	66 2e       	mov	r6, r22
    1ed4:	71 2c       	mov	r7, r1
    1ed6:	60 0e       	add	r6, r16
    1ed8:	71 1e       	adc	r7, r17
    1eda:	f8 01       	movw	r30, r16
    1edc:	80 80       	ld	r8, Z
    1ede:	91 80       	ldd	r9, Z+1	; 0x01
		size = strnlen (pnt, (flags & FL_PREC) ? prec : ~0);
    1ee0:	26 ff       	sbrs	r18, 6
    1ee2:	03 c0       	rjmp	.+6      	; 0x1eea <vfprintf+0x168>
    1ee4:	6e 2d       	mov	r22, r14
    1ee6:	70 e0       	ldi	r23, 0x00	; 0
    1ee8:	02 c0       	rjmp	.+4      	; 0x1eee <vfprintf+0x16c>
    1eea:	6f ef       	ldi	r22, 0xFF	; 255
    1eec:	7f ef       	ldi	r23, 0xFF	; 255
    1eee:	c4 01       	movw	r24, r8
    1ef0:	2c 87       	std	Y+12, r18	; 0x0c
    1ef2:	0e 94 e5 10 	call	0x21ca	; 0x21ca <strnlen>
    1ef6:	5c 01       	movw	r10, r24
		pnt = (char *)buf;
		size = 1;
		goto no_pgmstring;

	      case 's':
		pnt = va_arg (ap, char *);
    1ef8:	83 01       	movw	r16, r6
    1efa:	2c 85       	ldd	r18, Y+12	; 0x0c
		size = strnlen (pnt, (flags & FL_PREC) ? prec : ~0);
	      no_pgmstring:
		flags &= ~FL_PGMSTRING;
    1efc:	2f 77       	andi	r18, 0x7F	; 127
		goto str_lpad;
    1efe:	17 c0       	rjmp	.+46     	; 0x1f2e <vfprintf+0x1ac>

	      case 'S':
	        pnt = va_arg (ap, char *);
    1f00:	52 e0       	ldi	r21, 0x02	; 2
    1f02:	65 2e       	mov	r6, r21
    1f04:	71 2c       	mov	r7, r1
    1f06:	60 0e       	add	r6, r16
    1f08:	71 1e       	adc	r7, r17
    1f0a:	f8 01       	movw	r30, r16
    1f0c:	80 80       	ld	r8, Z
    1f0e:	91 80       	ldd	r9, Z+1	; 0x01
		size = strnlen_P (pnt, (flags & FL_PREC) ? prec : ~0);
    1f10:	26 ff       	sbrs	r18, 6
    1f12:	03 c0       	rjmp	.+6      	; 0x1f1a <vfprintf+0x198>
    1f14:	6e 2d       	mov	r22, r14
    1f16:	70 e0       	ldi	r23, 0x00	; 0
    1f18:	02 c0       	rjmp	.+4      	; 0x1f1e <vfprintf+0x19c>
    1f1a:	6f ef       	ldi	r22, 0xFF	; 255
    1f1c:	7f ef       	ldi	r23, 0xFF	; 255
    1f1e:	c4 01       	movw	r24, r8
    1f20:	2c 87       	std	Y+12, r18	; 0x0c
    1f22:	0e 94 d1 10 	call	0x21a2	; 0x21a2 <strnlen_P>
    1f26:	5c 01       	movw	r10, r24
		flags |= FL_PGMSTRING;
    1f28:	2c 85       	ldd	r18, Y+12	; 0x0c
    1f2a:	20 68       	ori	r18, 0x80	; 128
	      no_pgmstring:
		flags &= ~FL_PGMSTRING;
		goto str_lpad;

	      case 'S':
	        pnt = va_arg (ap, char *);
    1f2c:	83 01       	movw	r16, r6
		size = strnlen_P (pnt, (flags & FL_PREC) ? prec : ~0);
		flags |= FL_PGMSTRING;

	      str_lpad:
		if (!(flags & FL_LPAD)) {
    1f2e:	23 fd       	sbrc	r18, 3
    1f30:	20 c0       	rjmp	.+64     	; 0x1f72 <vfprintf+0x1f0>
    1f32:	08 c0       	rjmp	.+16     	; 0x1f44 <vfprintf+0x1c2>
		    while (size < width) {
			putc (' ', stream);
    1f34:	80 e2       	ldi	r24, 0x20	; 32
    1f36:	90 e0       	ldi	r25, 0x00	; 0
    1f38:	b6 01       	movw	r22, r12
    1f3a:	2c 87       	std	Y+12, r18	; 0x0c
    1f3c:	0e 94 00 11 	call	0x2200	; 0x2200 <fputc>
			width--;
    1f40:	fa 94       	dec	r15
    1f42:	2c 85       	ldd	r18, Y+12	; 0x0c
		size = strnlen_P (pnt, (flags & FL_PREC) ? prec : ~0);
		flags |= FL_PGMSTRING;

	      str_lpad:
		if (!(flags & FL_LPAD)) {
		    while (size < width) {
    1f44:	8f 2d       	mov	r24, r15
    1f46:	90 e0       	ldi	r25, 0x00	; 0
    1f48:	a8 16       	cp	r10, r24
    1f4a:	b9 06       	cpc	r11, r25
    1f4c:	98 f3       	brcs	.-26     	; 0x1f34 <vfprintf+0x1b2>
    1f4e:	11 c0       	rjmp	.+34     	; 0x1f72 <vfprintf+0x1f0>
			putc (' ', stream);
			width--;
		    }
		}
		while (size) {
		    putc (GETBYTE (flags, FL_PGMSTRING, pnt), stream);
    1f50:	f4 01       	movw	r30, r8
    1f52:	27 fd       	sbrc	r18, 7
    1f54:	85 91       	lpm	r24, Z+
    1f56:	27 ff       	sbrs	r18, 7
    1f58:	81 91       	ld	r24, Z+
    1f5a:	4f 01       	movw	r8, r30
    1f5c:	90 e0       	ldi	r25, 0x00	; 0
    1f5e:	b6 01       	movw	r22, r12
    1f60:	2c 87       	std	Y+12, r18	; 0x0c
    1f62:	0e 94 00 11 	call	0x2200	; 0x2200 <fputc>
		    if (width) width -= 1;
    1f66:	2c 85       	ldd	r18, Y+12	; 0x0c
    1f68:	f1 10       	cpse	r15, r1
    1f6a:	fa 94       	dec	r15
		    size -= 1;
    1f6c:	08 94       	sec
    1f6e:	a1 08       	sbc	r10, r1
    1f70:	b1 08       	sbc	r11, r1
		    while (size < width) {
			putc (' ', stream);
			width--;
		    }
		}
		while (size) {
    1f72:	a1 14       	cp	r10, r1
    1f74:	b1 04       	cpc	r11, r1
    1f76:	61 f7       	brne	.-40     	; 0x1f50 <vfprintf+0x1ce>
    1f78:	f1 c0       	rjmp	.+482    	; 0x215c <vfprintf+0x3da>
		}
		goto tail;
	    }
	}

	if (c == 'd' || c == 'i') {
    1f7a:	84 36       	cpi	r24, 0x64	; 100
    1f7c:	11 f0       	breq	.+4      	; 0x1f82 <vfprintf+0x200>
    1f7e:	89 36       	cpi	r24, 0x69	; 105
    1f80:	49 f5       	brne	.+82     	; 0x1fd4 <vfprintf+0x252>
	    long x = (flags & FL_LONG) ? va_arg(ap,long) : va_arg(ap,int);
    1f82:	27 ff       	sbrs	r18, 7
    1f84:	08 c0       	rjmp	.+16     	; 0x1f96 <vfprintf+0x214>
    1f86:	f8 01       	movw	r30, r16
    1f88:	60 81       	ld	r22, Z
    1f8a:	71 81       	ldd	r23, Z+1	; 0x01
    1f8c:	82 81       	ldd	r24, Z+2	; 0x02
    1f8e:	93 81       	ldd	r25, Z+3	; 0x03
    1f90:	0c 5f       	subi	r16, 0xFC	; 252
    1f92:	1f 4f       	sbci	r17, 0xFF	; 255
    1f94:	09 c0       	rjmp	.+18     	; 0x1fa8 <vfprintf+0x226>
    1f96:	f8 01       	movw	r30, r16
    1f98:	60 81       	ld	r22, Z
    1f9a:	71 81       	ldd	r23, Z+1	; 0x01
    1f9c:	88 27       	eor	r24, r24
    1f9e:	77 fd       	sbrc	r23, 7
    1fa0:	80 95       	com	r24
    1fa2:	98 2f       	mov	r25, r24
    1fa4:	0e 5f       	subi	r16, 0xFE	; 254
    1fa6:	1f 4f       	sbci	r17, 0xFF	; 255
	    flags &= ~(FL_NEGATIVE | FL_ALT);
    1fa8:	4f e6       	ldi	r20, 0x6F	; 111
    1faa:	b4 2e       	mov	r11, r20
    1fac:	b2 22       	and	r11, r18
	    if (x < 0) {
    1fae:	97 ff       	sbrs	r25, 7
    1fb0:	09 c0       	rjmp	.+18     	; 0x1fc4 <vfprintf+0x242>
		x = -x;
    1fb2:	90 95       	com	r25
    1fb4:	80 95       	com	r24
    1fb6:	70 95       	com	r23
    1fb8:	61 95       	neg	r22
    1fba:	7f 4f       	sbci	r23, 0xFF	; 255
    1fbc:	8f 4f       	sbci	r24, 0xFF	; 255
    1fbe:	9f 4f       	sbci	r25, 0xFF	; 255
		flags |= FL_NEGATIVE;
    1fc0:	f0 e8       	ldi	r31, 0x80	; 128
    1fc2:	bf 2a       	or	r11, r31
	    }
	    c = __ultoa_invert (x, (char *)buf, 10) - (char *)buf;
    1fc4:	a2 01       	movw	r20, r4
    1fc6:	2a e0       	ldi	r18, 0x0A	; 10
    1fc8:	30 e0       	ldi	r19, 0x00	; 0
    1fca:	0e 94 2c 11 	call	0x2258	; 0x2258 <__ultoa_invert>
    1fce:	78 2e       	mov	r7, r24
    1fd0:	74 18       	sub	r7, r4
		}
		goto tail;
	    }
	}

	if (c == 'd' || c == 'i') {
    1fd2:	45 c0       	rjmp	.+138    	; 0x205e <vfprintf+0x2dc>
	    c = __ultoa_invert (x, (char *)buf, 10) - (char *)buf;

	} else {
	    int base;

	    if (c == 'u') {
    1fd4:	85 37       	cpi	r24, 0x75	; 117
    1fd6:	31 f4       	brne	.+12     	; 0x1fe4 <vfprintf+0x262>
		flags &= ~FL_ALT;
    1fd8:	3f ee       	ldi	r19, 0xEF	; 239
    1fda:	b3 2e       	mov	r11, r19
    1fdc:	b2 22       	and	r11, r18
		base = 10;
    1fde:	2a e0       	ldi	r18, 0x0A	; 10
    1fe0:	30 e0       	ldi	r19, 0x00	; 0
		goto ultoa;
    1fe2:	25 c0       	rjmp	.+74     	; 0x202e <vfprintf+0x2ac>
	    }

	    flags &= ~(FL_PLUS | FL_SPACE);
    1fe4:	99 ef       	ldi	r25, 0xF9	; 249
    1fe6:	b9 2e       	mov	r11, r25
    1fe8:	b2 22       	and	r11, r18

	    switch (c) {
    1fea:	8f 36       	cpi	r24, 0x6F	; 111
    1fec:	c1 f0       	breq	.+48     	; 0x201e <vfprintf+0x29c>
    1fee:	80 37       	cpi	r24, 0x70	; 112
    1ff0:	20 f4       	brcc	.+8      	; 0x1ffa <vfprintf+0x278>
    1ff2:	88 35       	cpi	r24, 0x58	; 88
    1ff4:	09 f0       	breq	.+2      	; 0x1ff8 <vfprintf+0x276>
    1ff6:	b5 c0       	rjmp	.+362    	; 0x2162 <vfprintf+0x3e0>
    1ff8:	0d c0       	rjmp	.+26     	; 0x2014 <vfprintf+0x292>
    1ffa:	80 37       	cpi	r24, 0x70	; 112
    1ffc:	21 f0       	breq	.+8      	; 0x2006 <vfprintf+0x284>
    1ffe:	88 37       	cpi	r24, 0x78	; 120
    2000:	09 f0       	breq	.+2      	; 0x2004 <vfprintf+0x282>
    2002:	af c0       	rjmp	.+350    	; 0x2162 <vfprintf+0x3e0>
    2004:	02 c0       	rjmp	.+4      	; 0x200a <vfprintf+0x288>
	      case 'o':
	        base = 8;
		goto ultoa;
	      case 'p':
	        flags |= FL_ALT;
    2006:	20 e1       	ldi	r18, 0x10	; 16
    2008:	b2 2a       	or	r11, r18
		/* no break */
	      case 'x':
		if (flags & FL_ALT)
    200a:	b4 fe       	sbrs	r11, 4
    200c:	0b c0       	rjmp	.+22     	; 0x2024 <vfprintf+0x2a2>
		    flags |= FL_ALTHEX;
    200e:	84 e0       	ldi	r24, 0x04	; 4
    2010:	b8 2a       	or	r11, r24
    2012:	08 c0       	rjmp	.+16     	; 0x2024 <vfprintf+0x2a2>
	        base = 16;
		goto ultoa;
	      case 'X':
		if (flags & FL_ALT)
    2014:	b4 fe       	sbrs	r11, 4
    2016:	09 c0       	rjmp	.+18     	; 0x202a <vfprintf+0x2a8>
		    flags |= (FL_ALTHEX | FL_ALTUPP);
    2018:	e6 e0       	ldi	r30, 0x06	; 6
    201a:	be 2a       	or	r11, r30
    201c:	06 c0       	rjmp	.+12     	; 0x202a <vfprintf+0x2a8>

	    flags &= ~(FL_PLUS | FL_SPACE);

	    switch (c) {
	      case 'o':
	        base = 8;
    201e:	28 e0       	ldi	r18, 0x08	; 8
    2020:	30 e0       	ldi	r19, 0x00	; 0
    2022:	05 c0       	rjmp	.+10     	; 0x202e <vfprintf+0x2ac>
	        flags |= FL_ALT;
		/* no break */
	      case 'x':
		if (flags & FL_ALT)
		    flags |= FL_ALTHEX;
	        base = 16;
    2024:	20 e1       	ldi	r18, 0x10	; 16
    2026:	30 e0       	ldi	r19, 0x00	; 0
    2028:	02 c0       	rjmp	.+4      	; 0x202e <vfprintf+0x2ac>
		goto ultoa;
	      case 'X':
		if (flags & FL_ALT)
		    flags |= (FL_ALTHEX | FL_ALTUPP);
	        base = 16 | XTOA_UPPER;
    202a:	20 e1       	ldi	r18, 0x10	; 16
    202c:	32 e0       	ldi	r19, 0x02	; 2
	      ultoa:
		c = __ultoa_invert ((flags & FL_LONG)
    202e:	b7 fe       	sbrs	r11, 7
    2030:	08 c0       	rjmp	.+16     	; 0x2042 <vfprintf+0x2c0>
    2032:	f8 01       	movw	r30, r16
    2034:	60 81       	ld	r22, Z
    2036:	71 81       	ldd	r23, Z+1	; 0x01
    2038:	82 81       	ldd	r24, Z+2	; 0x02
    203a:	93 81       	ldd	r25, Z+3	; 0x03
				    ? va_arg(ap, unsigned long)
    203c:	0c 5f       	subi	r16, 0xFC	; 252
    203e:	1f 4f       	sbci	r17, 0xFF	; 255
    2040:	07 c0       	rjmp	.+14     	; 0x2050 <vfprintf+0x2ce>
	      case 'X':
		if (flags & FL_ALT)
		    flags |= (FL_ALTHEX | FL_ALTUPP);
	        base = 16 | XTOA_UPPER;
	      ultoa:
		c = __ultoa_invert ((flags & FL_LONG)
    2042:	f8 01       	movw	r30, r16
    2044:	60 81       	ld	r22, Z
    2046:	71 81       	ldd	r23, Z+1	; 0x01
    2048:	80 e0       	ldi	r24, 0x00	; 0
    204a:	90 e0       	ldi	r25, 0x00	; 0
				    ? va_arg(ap, unsigned long)
				    : va_arg(ap, unsigned int),
    204c:	0e 5f       	subi	r16, 0xFE	; 254
    204e:	1f 4f       	sbci	r17, 0xFF	; 255
	      case 'X':
		if (flags & FL_ALT)
		    flags |= (FL_ALTHEX | FL_ALTUPP);
	        base = 16 | XTOA_UPPER;
	      ultoa:
		c = __ultoa_invert ((flags & FL_LONG)
    2050:	a2 01       	movw	r20, r4
    2052:	0e 94 2c 11 	call	0x2258	; 0x2258 <__ultoa_invert>
    2056:	78 2e       	mov	r7, r24
    2058:	74 18       	sub	r7, r4
				    ? va_arg(ap, unsigned long)
				    : va_arg(ap, unsigned int),
				    (char *)buf, base)  -  (char *)buf;
		flags &= ~FL_NEGATIVE;
    205a:	ff e7       	ldi	r31, 0x7F	; 127
    205c:	bf 22       	and	r11, r31

	{
	    unsigned char len;

	    len = c;
	    if (flags & FL_PREC) {
    205e:	b6 fe       	sbrs	r11, 6
    2060:	0b c0       	rjmp	.+22     	; 0x2078 <vfprintf+0x2f6>
		flags &= ~FL_ZFILL;
    2062:	2e ef       	ldi	r18, 0xFE	; 254
    2064:	b2 22       	and	r11, r18
		if (len < prec) {
    2066:	7e 14       	cp	r7, r14
    2068:	38 f4       	brcc	.+14     	; 0x2078 <vfprintf+0x2f6>
		    len = prec;
		    if ((flags & FL_ALT) && !(flags & FL_ALTHEX))
    206a:	b4 fe       	sbrs	r11, 4
    206c:	07 c0       	rjmp	.+14     	; 0x207c <vfprintf+0x2fa>
    206e:	b2 fc       	sbrc	r11, 2
    2070:	05 c0       	rjmp	.+10     	; 0x207c <vfprintf+0x2fa>
			flags &= ~FL_ALT;
    2072:	8f ee       	ldi	r24, 0xEF	; 239
    2074:	b8 22       	and	r11, r24
    2076:	02 c0       	rjmp	.+4      	; 0x207c <vfprintf+0x2fa>
	    unsigned char len;

	    len = c;
	    if (flags & FL_PREC) {
		flags &= ~FL_ZFILL;
		if (len < prec) {
    2078:	a7 2c       	mov	r10, r7
    207a:	01 c0       	rjmp	.+2      	; 0x207e <vfprintf+0x2fc>
		    len = prec;
		    if ((flags & FL_ALT) && !(flags & FL_ALTHEX))
    207c:	ae 2c       	mov	r10, r14
			flags &= ~FL_ALT;
		}
	    }
	    if (flags & FL_ALT) {
    207e:	8b 2d       	mov	r24, r11
    2080:	90 e0       	ldi	r25, 0x00	; 0
    2082:	b4 fe       	sbrs	r11, 4
    2084:	0d c0       	rjmp	.+26     	; 0x20a0 <vfprintf+0x31e>
		if (buf[c-1] == '0') {
    2086:	fe 01       	movw	r30, r28
    2088:	e7 0d       	add	r30, r7
    208a:	f1 1d       	adc	r31, r1
    208c:	20 81       	ld	r18, Z
    208e:	20 33       	cpi	r18, 0x30	; 48
    2090:	19 f4       	brne	.+6      	; 0x2098 <vfprintf+0x316>
		    flags &= ~(FL_ALT | FL_ALTHEX | FL_ALTUPP);
    2092:	e9 ee       	ldi	r30, 0xE9	; 233
    2094:	be 22       	and	r11, r30
    2096:	09 c0       	rjmp	.+18     	; 0x20aa <vfprintf+0x328>
		} else {
		    len += 1;
    2098:	a3 94       	inc	r10
		    if (flags & FL_ALTHEX)
    209a:	b2 fe       	sbrs	r11, 2
    209c:	06 c0       	rjmp	.+12     	; 0x20aa <vfprintf+0x328>
    209e:	04 c0       	rjmp	.+8      	; 0x20a8 <vfprintf+0x326>
		    	len += 1;
		}
	    } else if (flags & (FL_NEGATIVE | FL_PLUS | FL_SPACE)) {
    20a0:	86 78       	andi	r24, 0x86	; 134
    20a2:	90 70       	andi	r25, 0x00	; 0
    20a4:	00 97       	sbiw	r24, 0x00	; 0
    20a6:	09 f0       	breq	.+2      	; 0x20aa <vfprintf+0x328>
		len += 1;
    20a8:	a3 94       	inc	r10
	    }

	    if (!(flags & FL_LPAD)) {
    20aa:	8b 2c       	mov	r8, r11
    20ac:	99 24       	eor	r9, r9
    20ae:	b3 fc       	sbrc	r11, 3
    20b0:	14 c0       	rjmp	.+40     	; 0x20da <vfprintf+0x358>
		if (flags & FL_ZFILL) {
    20b2:	b0 fe       	sbrs	r11, 0
    20b4:	0f c0       	rjmp	.+30     	; 0x20d4 <vfprintf+0x352>
		    prec = c;
		    if (len < width) {
    20b6:	af 14       	cp	r10, r15
    20b8:	28 f4       	brcc	.+10     	; 0x20c4 <vfprintf+0x342>
			prec += width - len;
    20ba:	e7 2c       	mov	r14, r7
    20bc:	ef 0c       	add	r14, r15
    20be:	ea 18       	sub	r14, r10
    20c0:	af 2c       	mov	r10, r15
    20c2:	08 c0       	rjmp	.+16     	; 0x20d4 <vfprintf+0x352>
	    }

	    if (!(flags & FL_LPAD)) {
		if (flags & FL_ZFILL) {
		    prec = c;
		    if (len < width) {
    20c4:	e7 2c       	mov	r14, r7
    20c6:	06 c0       	rjmp	.+12     	; 0x20d4 <vfprintf+0x352>
			prec += width - len;
			len = width;
		    }
		}
		while (len < width) {
		    putc (' ', stream);
    20c8:	80 e2       	ldi	r24, 0x20	; 32
    20ca:	90 e0       	ldi	r25, 0x00	; 0
    20cc:	b6 01       	movw	r22, r12
    20ce:	0e 94 00 11 	call	0x2200	; 0x2200 <fputc>
		    len++;
    20d2:	a3 94       	inc	r10
		    if (len < width) {
			prec += width - len;
			len = width;
		    }
		}
		while (len < width) {
    20d4:	af 14       	cp	r10, r15
    20d6:	c0 f3       	brcs	.-16     	; 0x20c8 <vfprintf+0x346>
    20d8:	04 c0       	rjmp	.+8      	; 0x20e2 <vfprintf+0x360>
		    putc (' ', stream);
		    len++;
		}
	    }
	
	    width =  (len < width) ? width - len : 0;
    20da:	af 14       	cp	r10, r15
    20dc:	10 f4       	brcc	.+4      	; 0x20e2 <vfprintf+0x360>
    20de:	fa 18       	sub	r15, r10
    20e0:	01 c0       	rjmp	.+2      	; 0x20e4 <vfprintf+0x362>
    20e2:	ff 24       	eor	r15, r15

	    if (flags & FL_ALT) {
    20e4:	84 fe       	sbrs	r8, 4
    20e6:	0f c0       	rjmp	.+30     	; 0x2106 <vfprintf+0x384>
		putc ('0', stream);
    20e8:	80 e3       	ldi	r24, 0x30	; 48
    20ea:	90 e0       	ldi	r25, 0x00	; 0
    20ec:	b6 01       	movw	r22, r12
    20ee:	0e 94 00 11 	call	0x2200	; 0x2200 <fputc>
		if (flags & FL_ALTHEX)
    20f2:	82 fe       	sbrs	r8, 2
    20f4:	1f c0       	rjmp	.+62     	; 0x2134 <vfprintf+0x3b2>
		    putc (flags & FL_ALTUPP ? 'X' : 'x', stream);
    20f6:	81 fe       	sbrs	r8, 1
    20f8:	03 c0       	rjmp	.+6      	; 0x2100 <vfprintf+0x37e>
    20fa:	88 e5       	ldi	r24, 0x58	; 88
    20fc:	90 e0       	ldi	r25, 0x00	; 0
    20fe:	10 c0       	rjmp	.+32     	; 0x2120 <vfprintf+0x39e>
    2100:	88 e7       	ldi	r24, 0x78	; 120
    2102:	90 e0       	ldi	r25, 0x00	; 0
    2104:	0d c0       	rjmp	.+26     	; 0x2120 <vfprintf+0x39e>
	    } else if (flags & (FL_NEGATIVE | FL_PLUS | FL_SPACE)) {
    2106:	c4 01       	movw	r24, r8
    2108:	86 78       	andi	r24, 0x86	; 134
    210a:	90 70       	andi	r25, 0x00	; 0
    210c:	00 97       	sbiw	r24, 0x00	; 0
    210e:	91 f0       	breq	.+36     	; 0x2134 <vfprintf+0x3b2>
		unsigned char z = ' ';
		if (flags & FL_PLUS) z = '+';
    2110:	81 fc       	sbrc	r8, 1
    2112:	02 c0       	rjmp	.+4      	; 0x2118 <vfprintf+0x396>
	    if (flags & FL_ALT) {
		putc ('0', stream);
		if (flags & FL_ALTHEX)
		    putc (flags & FL_ALTUPP ? 'X' : 'x', stream);
	    } else if (flags & (FL_NEGATIVE | FL_PLUS | FL_SPACE)) {
		unsigned char z = ' ';
    2114:	80 e2       	ldi	r24, 0x20	; 32
    2116:	01 c0       	rjmp	.+2      	; 0x211a <vfprintf+0x398>
		if (flags & FL_PLUS) z = '+';
    2118:	8b e2       	ldi	r24, 0x2B	; 43
		if (flags & FL_NEGATIVE) z = '-';
    211a:	b7 fc       	sbrc	r11, 7
    211c:	8d e2       	ldi	r24, 0x2D	; 45
		putc (z, stream);
    211e:	90 e0       	ldi	r25, 0x00	; 0
    2120:	b6 01       	movw	r22, r12
    2122:	0e 94 00 11 	call	0x2200	; 0x2200 <fputc>
    2126:	06 c0       	rjmp	.+12     	; 0x2134 <vfprintf+0x3b2>
	    }
		
	    while (prec > c) {
		putc ('0', stream);
    2128:	80 e3       	ldi	r24, 0x30	; 48
    212a:	90 e0       	ldi	r25, 0x00	; 0
    212c:	b6 01       	movw	r22, r12
    212e:	0e 94 00 11 	call	0x2200	; 0x2200 <fputc>
		prec--;
    2132:	ea 94       	dec	r14
		if (flags & FL_PLUS) z = '+';
		if (flags & FL_NEGATIVE) z = '-';
		putc (z, stream);
	    }
		
	    while (prec > c) {
    2134:	7e 14       	cp	r7, r14
    2136:	c0 f3       	brcs	.-16     	; 0x2128 <vfprintf+0x3a6>
		putc ('0', stream);
		prec--;
	    }
	
	    do {
		putc (buf[--c], stream);
    2138:	7a 94       	dec	r7
    213a:	f2 01       	movw	r30, r4
    213c:	e7 0d       	add	r30, r7
    213e:	f1 1d       	adc	r31, r1
    2140:	80 81       	ld	r24, Z
    2142:	90 e0       	ldi	r25, 0x00	; 0
    2144:	b6 01       	movw	r22, r12
    2146:	0e 94 00 11 	call	0x2200	; 0x2200 <fputc>
	    } while (c);
    214a:	77 20       	and	r7, r7
    214c:	a9 f7       	brne	.-22     	; 0x2138 <vfprintf+0x3b6>
    214e:	06 c0       	rjmp	.+12     	; 0x215c <vfprintf+0x3da>
	}
	
      tail:
	/* Tail is possible.	*/
	while (width) {
	    putc (' ', stream);
    2150:	80 e2       	ldi	r24, 0x20	; 32
    2152:	90 e0       	ldi	r25, 0x00	; 0
    2154:	b6 01       	movw	r22, r12
    2156:	0e 94 00 11 	call	0x2200	; 0x2200 <fputc>
	    width--;
    215a:	fa 94       	dec	r15
	    } while (c);
	}
	
      tail:
	/* Tail is possible.	*/
	while (width) {
    215c:	ff 20       	and	r15, r15
    215e:	c1 f7       	brne	.-16     	; 0x2150 <vfprintf+0x3ce>
    2160:	37 ce       	rjmp	.-914    	; 0x1dd0 <vfprintf+0x4e>
	    width--;
	}
    } /* for (;;) */

  ret:
    return stream->len;
    2162:	f6 01       	movw	r30, r12
    2164:	26 81       	ldd	r18, Z+6	; 0x06
    2166:	37 81       	ldd	r19, Z+7	; 0x07
    2168:	02 c0       	rjmp	.+4      	; 0x216e <vfprintf+0x3ec>
    unsigned char buf[11];	/* size for -1 in octal, without '\0'	*/

    stream->len = 0;

    if ((stream->flags & __SWR) == 0)
	return EOF;
    216a:	2f ef       	ldi	r18, 0xFF	; 255
    216c:	3f ef       	ldi	r19, 0xFF	; 255
	}
    } /* for (;;) */

  ret:
    return stream->len;
}
    216e:	c9 01       	movw	r24, r18
    2170:	2c 96       	adiw	r28, 0x0c	; 12
    2172:	0f b6       	in	r0, 0x3f	; 63
    2174:	f8 94       	cli
    2176:	de bf       	out	0x3e, r29	; 62
    2178:	0f be       	out	0x3f, r0	; 63
    217a:	cd bf       	out	0x3d, r28	; 61
    217c:	cf 91       	pop	r28
    217e:	df 91       	pop	r29
    2180:	1f 91       	pop	r17
    2182:	0f 91       	pop	r16
    2184:	ff 90       	pop	r15
    2186:	ef 90       	pop	r14
    2188:	df 90       	pop	r13
    218a:	cf 90       	pop	r12
    218c:	bf 90       	pop	r11
    218e:	af 90       	pop	r10
    2190:	9f 90       	pop	r9
    2192:	8f 90       	pop	r8
    2194:	7f 90       	pop	r7
    2196:	6f 90       	pop	r6
    2198:	5f 90       	pop	r5
    219a:	4f 90       	pop	r4
    219c:	3f 90       	pop	r3
    219e:	2f 90       	pop	r2
    21a0:	08 95       	ret

000021a2 <strnlen_P>:
    21a2:	fc 01       	movw	r30, r24
    21a4:	05 90       	lpm	r0, Z+
    21a6:	61 50       	subi	r22, 0x01	; 1
    21a8:	70 40       	sbci	r23, 0x00	; 0
    21aa:	01 10       	cpse	r0, r1
    21ac:	d8 f7       	brcc	.-10     	; 0x21a4 <strnlen_P+0x2>
    21ae:	80 95       	com	r24
    21b0:	90 95       	com	r25
    21b2:	8e 0f       	add	r24, r30
    21b4:	9f 1f       	adc	r25, r31
    21b6:	08 95       	ret

000021b8 <memcpy>:
    21b8:	fb 01       	movw	r30, r22
    21ba:	dc 01       	movw	r26, r24
    21bc:	02 c0       	rjmp	.+4      	; 0x21c2 <memcpy+0xa>
    21be:	01 90       	ld	r0, Z+
    21c0:	0d 92       	st	X+, r0
    21c2:	41 50       	subi	r20, 0x01	; 1
    21c4:	50 40       	sbci	r21, 0x00	; 0
    21c6:	d8 f7       	brcc	.-10     	; 0x21be <memcpy+0x6>
    21c8:	08 95       	ret

000021ca <strnlen>:
    21ca:	fc 01       	movw	r30, r24
    21cc:	61 50       	subi	r22, 0x01	; 1
    21ce:	70 40       	sbci	r23, 0x00	; 0
    21d0:	01 90       	ld	r0, Z+
    21d2:	01 10       	cpse	r0, r1
    21d4:	d8 f7       	brcc	.-10     	; 0x21cc <strnlen+0x2>
    21d6:	80 95       	com	r24
    21d8:	90 95       	com	r25
    21da:	8e 0f       	add	r24, r30
    21dc:	9f 1f       	adc	r25, r31
    21de:	08 95       	ret

000021e0 <strrev>:
    21e0:	dc 01       	movw	r26, r24
    21e2:	fc 01       	movw	r30, r24
    21e4:	67 2f       	mov	r22, r23
    21e6:	71 91       	ld	r23, Z+
    21e8:	77 23       	and	r23, r23
    21ea:	e1 f7       	brne	.-8      	; 0x21e4 <strrev+0x4>
    21ec:	32 97       	sbiw	r30, 0x02	; 2
    21ee:	04 c0       	rjmp	.+8      	; 0x21f8 <strrev+0x18>
    21f0:	7c 91       	ld	r23, X
    21f2:	6d 93       	st	X+, r22
    21f4:	70 83       	st	Z, r23
    21f6:	62 91       	ld	r22, -Z
    21f8:	ae 17       	cp	r26, r30
    21fa:	bf 07       	cpc	r27, r31
    21fc:	c8 f3       	brcs	.-14     	; 0x21f0 <strrev+0x10>
    21fe:	08 95       	ret

00002200 <fputc>:
#include "stdio_private.h"

ATTRIBUTE_CLIB_SECTION
int
fputc(int c, FILE *stream)
{
    2200:	0f 93       	push	r16
    2202:	1f 93       	push	r17
    2204:	cf 93       	push	r28
    2206:	df 93       	push	r29
    2208:	8c 01       	movw	r16, r24
    220a:	eb 01       	movw	r28, r22

	if ((stream->flags & __SWR) == 0)
    220c:	8b 81       	ldd	r24, Y+3	; 0x03
    220e:	81 ff       	sbrs	r24, 1
    2210:	1b c0       	rjmp	.+54     	; 0x2248 <fputc+0x48>
		return EOF;

	if (stream->flags & __SSTR) {
    2212:	82 ff       	sbrs	r24, 2
    2214:	0d c0       	rjmp	.+26     	; 0x2230 <fputc+0x30>
		if (stream->len < stream->size)
    2216:	2e 81       	ldd	r18, Y+6	; 0x06
    2218:	3f 81       	ldd	r19, Y+7	; 0x07
    221a:	8c 81       	ldd	r24, Y+4	; 0x04
    221c:	9d 81       	ldd	r25, Y+5	; 0x05
    221e:	28 17       	cp	r18, r24
    2220:	39 07       	cpc	r19, r25
    2222:	64 f4       	brge	.+24     	; 0x223c <fputc+0x3c>
			*stream->buf++ = c;
    2224:	e8 81       	ld	r30, Y
    2226:	f9 81       	ldd	r31, Y+1	; 0x01
    2228:	01 93       	st	Z+, r16
    222a:	f9 83       	std	Y+1, r31	; 0x01
    222c:	e8 83       	st	Y, r30
    222e:	06 c0       	rjmp	.+12     	; 0x223c <fputc+0x3c>
		stream->len++;
		return c;
	} else {
		if (stream->put(c, stream) == 0) {
    2230:	e8 85       	ldd	r30, Y+8	; 0x08
    2232:	f9 85       	ldd	r31, Y+9	; 0x09
    2234:	80 2f       	mov	r24, r16
    2236:	09 95       	icall
    2238:	00 97       	sbiw	r24, 0x00	; 0
    223a:	31 f4       	brne	.+12     	; 0x2248 <fputc+0x48>
			stream->len++;
    223c:	8e 81       	ldd	r24, Y+6	; 0x06
    223e:	9f 81       	ldd	r25, Y+7	; 0x07
    2240:	01 96       	adiw	r24, 0x01	; 1
    2242:	9f 83       	std	Y+7, r25	; 0x07
    2244:	8e 83       	std	Y+6, r24	; 0x06
			return c;
    2246:	02 c0       	rjmp	.+4      	; 0x224c <fputc+0x4c>
		} else
			return EOF;
    2248:	0f ef       	ldi	r16, 0xFF	; 255
    224a:	1f ef       	ldi	r17, 0xFF	; 255
	}
}
    224c:	c8 01       	movw	r24, r16
    224e:	df 91       	pop	r29
    2250:	cf 91       	pop	r28
    2252:	1f 91       	pop	r17
    2254:	0f 91       	pop	r16
    2256:	08 95       	ret

00002258 <__ultoa_invert>:
    2258:	fa 01       	movw	r30, r20
    225a:	aa 27       	eor	r26, r26
    225c:	28 30       	cpi	r18, 0x08	; 8
    225e:	51 f1       	breq	.+84     	; 0x22b4 <__ultoa_invert+0x5c>
    2260:	20 31       	cpi	r18, 0x10	; 16
    2262:	81 f1       	breq	.+96     	; 0x22c4 <__ultoa_invert+0x6c>
    2264:	e8 94       	clt
    2266:	6f 93       	push	r22
    2268:	6e 7f       	andi	r22, 0xFE	; 254
    226a:	6e 5f       	subi	r22, 0xFE	; 254
    226c:	7f 4f       	sbci	r23, 0xFF	; 255
    226e:	8f 4f       	sbci	r24, 0xFF	; 255
    2270:	9f 4f       	sbci	r25, 0xFF	; 255
    2272:	af 4f       	sbci	r26, 0xFF	; 255
    2274:	b1 e0       	ldi	r27, 0x01	; 1
    2276:	3e d0       	rcall	.+124    	; 0x22f4 <__ultoa_invert+0x9c>
    2278:	b4 e0       	ldi	r27, 0x04	; 4
    227a:	3c d0       	rcall	.+120    	; 0x22f4 <__ultoa_invert+0x9c>
    227c:	67 0f       	add	r22, r23
    227e:	78 1f       	adc	r23, r24
    2280:	89 1f       	adc	r24, r25
    2282:	9a 1f       	adc	r25, r26
    2284:	a1 1d       	adc	r26, r1
    2286:	68 0f       	add	r22, r24
    2288:	79 1f       	adc	r23, r25
    228a:	8a 1f       	adc	r24, r26
    228c:	91 1d       	adc	r25, r1
    228e:	a1 1d       	adc	r26, r1
    2290:	6a 0f       	add	r22, r26
    2292:	71 1d       	adc	r23, r1
    2294:	81 1d       	adc	r24, r1
    2296:	91 1d       	adc	r25, r1
    2298:	a1 1d       	adc	r26, r1
    229a:	20 d0       	rcall	.+64     	; 0x22dc <__ultoa_invert+0x84>
    229c:	09 f4       	brne	.+2      	; 0x22a0 <__ultoa_invert+0x48>
    229e:	68 94       	set
    22a0:	3f 91       	pop	r19
    22a2:	2a e0       	ldi	r18, 0x0A	; 10
    22a4:	26 9f       	mul	r18, r22
    22a6:	11 24       	eor	r1, r1
    22a8:	30 19       	sub	r19, r0
    22aa:	30 5d       	subi	r19, 0xD0	; 208
    22ac:	31 93       	st	Z+, r19
    22ae:	de f6       	brtc	.-74     	; 0x2266 <__ultoa_invert+0xe>
    22b0:	cf 01       	movw	r24, r30
    22b2:	08 95       	ret
    22b4:	46 2f       	mov	r20, r22
    22b6:	47 70       	andi	r20, 0x07	; 7
    22b8:	40 5d       	subi	r20, 0xD0	; 208
    22ba:	41 93       	st	Z+, r20
    22bc:	b3 e0       	ldi	r27, 0x03	; 3
    22be:	0f d0       	rcall	.+30     	; 0x22de <__ultoa_invert+0x86>
    22c0:	c9 f7       	brne	.-14     	; 0x22b4 <__ultoa_invert+0x5c>
    22c2:	f6 cf       	rjmp	.-20     	; 0x22b0 <__ultoa_invert+0x58>
    22c4:	46 2f       	mov	r20, r22
    22c6:	4f 70       	andi	r20, 0x0F	; 15
    22c8:	40 5d       	subi	r20, 0xD0	; 208
    22ca:	4a 33       	cpi	r20, 0x3A	; 58
    22cc:	18 f0       	brcs	.+6      	; 0x22d4 <__ultoa_invert+0x7c>
    22ce:	49 5d       	subi	r20, 0xD9	; 217
    22d0:	31 fd       	sbrc	r19, 1
    22d2:	40 52       	subi	r20, 0x20	; 32
    22d4:	41 93       	st	Z+, r20
    22d6:	02 d0       	rcall	.+4      	; 0x22dc <__ultoa_invert+0x84>
    22d8:	a9 f7       	brne	.-22     	; 0x22c4 <__ultoa_invert+0x6c>
    22da:	ea cf       	rjmp	.-44     	; 0x22b0 <__ultoa_invert+0x58>
    22dc:	b4 e0       	ldi	r27, 0x04	; 4
    22de:	a6 95       	lsr	r26
    22e0:	97 95       	ror	r25
    22e2:	87 95       	ror	r24
    22e4:	77 95       	ror	r23
    22e6:	67 95       	ror	r22
    22e8:	ba 95       	dec	r27
    22ea:	c9 f7       	brne	.-14     	; 0x22de <__ultoa_invert+0x86>
    22ec:	00 97       	sbiw	r24, 0x00	; 0
    22ee:	61 05       	cpc	r22, r1
    22f0:	71 05       	cpc	r23, r1
    22f2:	08 95       	ret
    22f4:	9b 01       	movw	r18, r22
    22f6:	ac 01       	movw	r20, r24
    22f8:	0a 2e       	mov	r0, r26
    22fa:	06 94       	lsr	r0
    22fc:	57 95       	ror	r21
    22fe:	47 95       	ror	r20
    2300:	37 95       	ror	r19
    2302:	27 95       	ror	r18
    2304:	ba 95       	dec	r27
    2306:	c9 f7       	brne	.-14     	; 0x22fa <__ultoa_invert+0xa2>
    2308:	62 0f       	add	r22, r18
    230a:	73 1f       	adc	r23, r19
    230c:	84 1f       	adc	r24, r20
    230e:	95 1f       	adc	r25, r21
    2310:	a0 1d       	adc	r26, r0
    2312:	08 95       	ret

00002314 <_exit>:
    2314:	f8 94       	cli

00002316 <__stop_program>:
    2316:	ff cf       	rjmp	.-2      	; 0x2316 <__stop_program>
