
mhvlib-tutorial-HD44780.elf:     file format elf32-avr

Sections:
Idx Name          Size      VMA       LMA       File off  Algn
  0 .data         00000096  00800100  00001864  000018f8  2**0
                  CONTENTS, ALLOC, LOAD, DATA
  1 .text         00001864  00000000  00000000  00000094  2**1
                  CONTENTS, ALLOC, LOAD, READONLY, CODE
  2 .bss          000000a0  00800196  00800196  0000198e  2**0
                  ALLOC
  3 .stab         000006cc  00000000  00000000  00001990  2**2
                  CONTENTS, READONLY, DEBUGGING
  4 .stabstr      00000071  00000000  00000000  0000205c  2**0
                  CONTENTS, READONLY, DEBUGGING

Disassembly of section .text:

00000000 <__vectors>:
       0:	0c 94 72 00 	jmp	0xe4	; 0xe4 <__ctors_end>
       4:	0c 94 9a 00 	jmp	0x134	; 0x134 <__bad_interrupt>
       8:	0c 94 9a 00 	jmp	0x134	; 0x134 <__bad_interrupt>
       c:	0c 94 9a 00 	jmp	0x134	; 0x134 <__bad_interrupt>
      10:	0c 94 9a 00 	jmp	0x134	; 0x134 <__bad_interrupt>
      14:	0c 94 9a 00 	jmp	0x134	; 0x134 <__bad_interrupt>
      18:	0c 94 9a 00 	jmp	0x134	; 0x134 <__bad_interrupt>
      1c:	0c 94 9a 00 	jmp	0x134	; 0x134 <__bad_interrupt>
      20:	0c 94 9a 00 	jmp	0x134	; 0x134 <__bad_interrupt>
      24:	0c 94 9a 00 	jmp	0x134	; 0x134 <__bad_interrupt>
      28:	0c 94 9a 00 	jmp	0x134	; 0x134 <__bad_interrupt>
      2c:	0c 94 9a 00 	jmp	0x134	; 0x134 <__bad_interrupt>
      30:	0c 94 9a 00 	jmp	0x134	; 0x134 <__bad_interrupt>
      34:	0c 94 9a 00 	jmp	0x134	; 0x134 <__bad_interrupt>
      38:	0c 94 a3 00 	jmp	0x146	; 0x146 <__vector_14>
      3c:	0c 94 9a 00 	jmp	0x134	; 0x134 <__bad_interrupt>
      40:	0c 94 9a 00 	jmp	0x134	; 0x134 <__bad_interrupt>
      44:	0c 94 9a 00 	jmp	0x134	; 0x134 <__bad_interrupt>
      48:	0c 94 9a 00 	jmp	0x134	; 0x134 <__bad_interrupt>
      4c:	0c 94 9a 00 	jmp	0x134	; 0x134 <__bad_interrupt>
      50:	0c 94 9a 00 	jmp	0x134	; 0x134 <__bad_interrupt>
      54:	0c 94 9a 00 	jmp	0x134	; 0x134 <__bad_interrupt>
      58:	0c 94 9a 00 	jmp	0x134	; 0x134 <__bad_interrupt>
      5c:	0c 94 9a 00 	jmp	0x134	; 0x134 <__bad_interrupt>
      60:	0c 94 9a 00 	jmp	0x134	; 0x134 <__bad_interrupt>
      64:	0c 94 9a 00 	jmp	0x134	; 0x134 <__bad_interrupt>

00000068 <_ZZ4mainE3__c>:
      68:	41 6c 6c 20 64 6f 6e 65 00                          All done.

00000071 <_ZZ13textAnimationP21MHV_Display_CharacterE3__c_0>:
      71:	34 2e 20 48 65 72 65 20 69 73 20 61 20 62 75 66     4. Here is a buf
      81:	66 65 72 20 69 6e 20 50 52 4f 47 4d 45 4d 20 63     fer in PROGMEM c
      91:	6f 6e 74 61 69 6e 69 6e 67 20 73 6f 6d 65 20 64     ontaining some d
      a1:	61 74 61 2f 2f 54 68 69 73 20 77 69 6c 6c 20 6e     ata//This will n
      b1:	6f 74 20 73 68 6f 77 00                             ot show.

000000b9 <_ZZ13textAnimationP21MHV_Display_CharacterE3__c>:
      b9:	32 2e 20 48 65 72 65 20 69 73 20 73 74 72 69 6e     2. Here is strin
      c9:	67 20 6f 66 20 74 65 78 74 20 69 6e 20 50 52 4f     g of text in PRO
      d9:	47 4d 45 4d 00                                      GMEM.

000000de <_ZL23mhv_hd44780AddressTable>:
      de:	54 14 40 00                                         T.@.

000000e2 <__ctors_start>:
      e2:	3e 01       	movw	r6, r28

000000e4 <__ctors_end>:
      e4:	11 24       	eor	r1, r1
      e6:	1f be       	out	0x3f, r1	; 63
      e8:	cf ef       	ldi	r28, 0xFF	; 255
      ea:	d8 e0       	ldi	r29, 0x08	; 8
      ec:	de bf       	out	0x3e, r29	; 62
      ee:	cd bf       	out	0x3d, r28	; 61

000000f0 <__do_copy_data>:
      f0:	11 e0       	ldi	r17, 0x01	; 1
      f2:	a0 e0       	ldi	r26, 0x00	; 0
      f4:	b1 e0       	ldi	r27, 0x01	; 1
      f6:	e4 e6       	ldi	r30, 0x64	; 100
      f8:	f8 e1       	ldi	r31, 0x18	; 24
      fa:	02 c0       	rjmp	.+4      	; 0x100 <__do_copy_data+0x10>
      fc:	05 90       	lpm	r0, Z+
      fe:	0d 92       	st	X+, r0
     100:	a6 39       	cpi	r26, 0x96	; 150
     102:	b1 07       	cpc	r27, r17
     104:	d9 f7       	brne	.-10     	; 0xfc <__do_copy_data+0xc>

00000106 <__do_clear_bss>:
     106:	12 e0       	ldi	r17, 0x02	; 2
     108:	a6 e9       	ldi	r26, 0x96	; 150
     10a:	b1 e0       	ldi	r27, 0x01	; 1
     10c:	01 c0       	rjmp	.+2      	; 0x110 <.do_clear_bss_start>

0000010e <.do_clear_bss_loop>:
     10e:	1d 92       	st	X+, r1

00000110 <.do_clear_bss_start>:
     110:	a6 33       	cpi	r26, 0x36	; 54
     112:	b1 07       	cpc	r27, r17
     114:	e1 f7       	brne	.-8      	; 0x10e <.do_clear_bss_loop>

00000116 <__do_global_ctors>:
     116:	10 e0       	ldi	r17, 0x00	; 0
     118:	c4 ee       	ldi	r28, 0xE4	; 228
     11a:	d0 e0       	ldi	r29, 0x00	; 0
     11c:	04 c0       	rjmp	.+8      	; 0x126 <__do_global_ctors+0x10>
     11e:	22 97       	sbiw	r28, 0x02	; 2
     120:	fe 01       	movw	r30, r28
     122:	0e 94 2c 0c 	call	0x1858	; 0x1858 <__tablejump__>
     126:	c2 3e       	cpi	r28, 0xE2	; 226
     128:	d1 07       	cpc	r29, r17
     12a:	c9 f7       	brne	.-14     	; 0x11e <__do_global_ctors+0x8>
     12c:	0e 94 e6 00 	call	0x1cc	; 0x1cc <main>
     130:	0c 94 30 0c 	jmp	0x1860	; 0x1860 <_exit>

00000134 <__bad_interrupt>:
     134:	0c 94 00 00 	jmp	0	; 0x0 <__vectors>

00000138 <_Z14displayTriggerPv>:
     138:	86 e0       	ldi	r24, 0x06	; 6
     13a:	92 e0       	ldi	r25, 0x02	; 2
     13c:	0e 94 d5 09 	call	0x13aa	; 0x13aa <_ZN34MHV_Display_HD44780_Direct_Connect7tickPWMEv>
     140:	08 95       	ret

00000142 <__cxa_pure_virtual>:
     142:	f8 94       	cli
     144:	ff cf       	rjmp	.-2      	; 0x144 <__cxa_pure_virtual+0x2>

00000146 <__vector_14>:
     146:	1f 92       	push	r1
     148:	0f 92       	push	r0
     14a:	0f b6       	in	r0, 0x3f	; 63
     14c:	0f 92       	push	r0
     14e:	11 24       	eor	r1, r1
     150:	2f 93       	push	r18
     152:	3f 93       	push	r19
     154:	4f 93       	push	r20
     156:	5f 93       	push	r21
     158:	6f 93       	push	r22
     15a:	7f 93       	push	r23
     15c:	8f 93       	push	r24
     15e:	9f 93       	push	r25
     160:	af 93       	push	r26
     162:	bf 93       	push	r27
     164:	ef 93       	push	r30
     166:	ff 93       	push	r31
     168:	8c ee       	ldi	r24, 0xEC	; 236
     16a:	91 e0       	ldi	r25, 0x01	; 1
     16c:	0e 94 0b 0c 	call	0x1816	; 0x1816 <_ZN10MHV_Timer88trigger1Ev>
     170:	ff 91       	pop	r31
     172:	ef 91       	pop	r30
     174:	bf 91       	pop	r27
     176:	af 91       	pop	r26
     178:	9f 91       	pop	r25
     17a:	8f 91       	pop	r24
     17c:	7f 91       	pop	r23
     17e:	6f 91       	pop	r22
     180:	5f 91       	pop	r21
     182:	4f 91       	pop	r20
     184:	3f 91       	pop	r19
     186:	2f 91       	pop	r18
     188:	0f 90       	pop	r0
     18a:	0f be       	out	0x3f, r0	; 63
     18c:	0f 90       	pop	r0
     18e:	1f 90       	pop	r1
     190:	18 95       	reti

00000192 <_Z13textAnimationP21MHV_Display_Character>:
     192:	0f 93       	push	r16
     194:	1f 93       	push	r17
     196:	8c 01       	movw	r16, r24
     198:	60 e0       	ldi	r22, 0x00	; 0
     19a:	71 e0       	ldi	r23, 0x01	; 1
     19c:	0e 94 36 02 	call	0x46c	; 0x46c <_ZN13MHV_Device_TX5writeEPKc>
     1a0:	c8 01       	movw	r24, r16
     1a2:	69 eb       	ldi	r22, 0xB9	; 185
     1a4:	70 e0       	ldi	r23, 0x00	; 0
     1a6:	0e 94 eb 01 	call	0x3d6	; 0x3d6 <_ZN13MHV_Device_TX7write_PEPKc>
     1aa:	c8 01       	movw	r24, r16
     1ac:	6c e1       	ldi	r22, 0x1C	; 28
     1ae:	71 e0       	ldi	r23, 0x01	; 1
     1b0:	48 e2       	ldi	r20, 0x28	; 40
     1b2:	50 e0       	ldi	r21, 0x00	; 0
     1b4:	0e 94 d1 02 	call	0x5a2	; 0x5a2 <_ZN13MHV_Device_TX5writeEPKcj>
     1b8:	c8 01       	movw	r24, r16
     1ba:	61 e7       	ldi	r22, 0x71	; 113
     1bc:	70 e0       	ldi	r23, 0x00	; 0
     1be:	43 e3       	ldi	r20, 0x33	; 51
     1c0:	50 e0       	ldi	r21, 0x00	; 0
     1c2:	0e 94 81 02 	call	0x502	; 0x502 <_ZN13MHV_Device_TX7write_PEPKcj>
     1c6:	1f 91       	pop	r17
     1c8:	0f 91       	pop	r16
     1ca:	08 95       	ret

000001cc <main>:
     1cc:	af 92       	push	r10
     1ce:	cf 92       	push	r12
     1d0:	ef 92       	push	r14
     1d2:	0f 93       	push	r16
     1d4:	1f 93       	push	r17
     1d6:	df 93       	push	r29
     1d8:	cf 93       	push	r28
     1da:	00 d0       	rcall	.+0      	; 0x1dc <main+0x10>
     1dc:	cd b7       	in	r28, 0x3d	; 61
     1de:	de b7       	in	r29, 0x3e	; 62
     1e0:	78 94       	sei
     1e2:	3d 9a       	sbi	0x07, 5	; 7
     1e4:	45 9a       	sbi	0x08, 5	; 8
     1e6:	25 9a       	sbi	0x04, 5	; 4
     1e8:	86 e0       	ldi	r24, 0x06	; 6
     1ea:	92 e0       	ldi	r25, 0x02	; 2
     1ec:	60 e0       	ldi	r22, 0x00	; 0
     1ee:	41 e0       	ldi	r20, 0x01	; 1
     1f0:	20 e0       	ldi	r18, 0x00	; 0
     1f2:	00 e0       	ldi	r16, 0x00	; 0
     1f4:	ee 24       	eor	r14, r14
     1f6:	cc 24       	eor	r12, r12
     1f8:	c3 94       	inc	r12
     1fa:	aa 24       	eor	r10, r10
     1fc:	0e 94 68 07 	call	0xed0	; 0xed0 <_ZN19MHV_Display_HD447804initEbbbbbbb>
     200:	8c ee       	ldi	r24, 0xEC	; 236
     202:	91 e0       	ldi	r25, 0x01	; 1
     204:	64 e0       	ldi	r22, 0x04	; 4
     206:	44 e2       	ldi	r20, 0x24	; 36
     208:	20 e0       	ldi	r18, 0x00	; 0
     20a:	0e 94 6c 0b 	call	0x16d8	; 0x16d8 <_ZN10MHV_Timer810setPeriodsE19mhv_timer_prescalerhh>
     20e:	8c ee       	ldi	r24, 0xEC	; 236
     210:	91 e0       	ldi	r25, 0x01	; 1
     212:	6c e9       	ldi	r22, 0x9C	; 156
     214:	70 e0       	ldi	r23, 0x00	; 0
     216:	40 e0       	ldi	r20, 0x00	; 0
     218:	50 e0       	ldi	r21, 0x00	; 0
     21a:	20 e0       	ldi	r18, 0x00	; 0
     21c:	30 e0       	ldi	r19, 0x00	; 0
     21e:	00 e0       	ldi	r16, 0x00	; 0
     220:	10 e0       	ldi	r17, 0x00	; 0
     222:	0e 94 1c 0c 	call	0x1838	; 0x1838 <_ZN10MHV_Timer811setTriggersEPFvPvES0_S2_S0_>
     226:	8c ee       	ldi	r24, 0xEC	; 236
     228:	91 e0       	ldi	r25, 0x01	; 1
     22a:	0e 94 99 0b 	call	0x1732	; 0x1732 <_ZN10MHV_Timer86enableEv>
     22e:	86 e0       	ldi	r24, 0x06	; 6
     230:	92 e0       	ldi	r25, 0x02	; 2
     232:	0e 94 c9 00 	call	0x192	; 0x192 <_Z13textAnimationP21MHV_Display_Character>
     236:	0c c0       	rjmp	.+24     	; 0x250 <main+0x84>
     238:	8c e0       	ldi	r24, 0x0C	; 12
     23a:	2f e7       	ldi	r18, 0x7F	; 127
     23c:	3a e1       	ldi	r19, 0x1A	; 26
     23e:	46 e0       	ldi	r20, 0x06	; 6
     240:	21 50       	subi	r18, 0x01	; 1
     242:	30 40       	sbci	r19, 0x00	; 0
     244:	40 40       	sbci	r20, 0x00	; 0
     246:	e1 f7       	brne	.-8      	; 0x240 <main+0x74>
     248:	00 c0       	rjmp	.+0      	; 0x24a <main+0x7e>
     24a:	00 00       	nop
     24c:	81 50       	subi	r24, 0x01	; 1
     24e:	a9 f7       	brne	.-22     	; 0x23a <main+0x6e>
     250:	86 e0       	ldi	r24, 0x06	; 6
     252:	92 e0       	ldi	r25, 0x02	; 2
     254:	63 e0       	ldi	r22, 0x03	; 3
     256:	70 e0       	ldi	r23, 0x00	; 0
     258:	0e 94 a1 05 	call	0xb42	; 0xb42 <_ZN21MHV_Display_Character11txAnimationEj>
     25c:	88 23       	and	r24, r24
     25e:	61 f7       	brne	.-40     	; 0x238 <main+0x6c>
     260:	1a 82       	std	Y+2, r1	; 0x02
     262:	19 82       	std	Y+1, r1	; 0x01
     264:	86 e0       	ldi	r24, 0x06	; 6
     266:	92 e0       	ldi	r25, 0x02	; 2
     268:	be 01       	movw	r22, r28
     26a:	6f 5f       	subi	r22, 0xFF	; 255
     26c:	7f 4f       	sbci	r23, 0xFF	; 255
     26e:	43 e0       	ldi	r20, 0x03	; 3
     270:	50 e0       	ldi	r21, 0x00	; 0
     272:	28 e6       	ldi	r18, 0x68	; 104
     274:	30 e0       	ldi	r19, 0x00	; 0
     276:	0e 94 b1 04 	call	0x962	; 0x962 <_ZN21MHV_Display_Character13writeString_PEPijPKc>
     27a:	ff cf       	rjmp	.-2      	; 0x27a <main+0xae>

0000027c <_GLOBAL__I___cxa_pure_virtual>:
     27c:	8f 92       	push	r8
     27e:	9f 92       	push	r9
     280:	af 92       	push	r10
     282:	bf 92       	push	r11
     284:	cf 92       	push	r12
     286:	df 92       	push	r13
     288:	ef 92       	push	r14
     28a:	ff 92       	push	r15
     28c:	0f 93       	push	r16
     28e:	1f 93       	push	r17
     290:	cf 93       	push	r28
     292:	df 93       	push	r29
     294:	c7 ee       	ldi	r28, 0xE7	; 231
     296:	d1 e0       	ldi	r29, 0x01	; 1
     298:	ce 01       	movw	r24, r28
     29a:	66 e9       	ldi	r22, 0x96	; 150
     29c:	71 e0       	ldi	r23, 0x01	; 1
     29e:	41 e5       	ldi	r20, 0x51	; 81
     2a0:	0e 94 2e 0a 	call	0x145c	; 0x145c <_ZN14MHV_RingBufferC1EPch>
     2a4:	8c ee       	ldi	r24, 0xEC	; 236
     2a6:	91 e0       	ldi	r25, 0x01	; 1
     2a8:	60 e0       	ldi	r22, 0x00	; 0
     2aa:	44 e4       	ldi	r20, 0x44	; 68
     2ac:	50 e0       	ldi	r21, 0x00	; 0
     2ae:	25 e4       	ldi	r18, 0x45	; 69
     2b0:	30 e0       	ldi	r19, 0x00	; 0
     2b2:	07 e4       	ldi	r16, 0x47	; 71
     2b4:	10 e0       	ldi	r17, 0x00	; 0
     2b6:	e8 e4       	ldi	r30, 0x48	; 72
     2b8:	ee 2e       	mov	r14, r30
     2ba:	f1 2c       	mov	r15, r1
     2bc:	76 e4       	ldi	r23, 0x46	; 70
     2be:	c7 2e       	mov	r12, r23
     2c0:	d1 2c       	mov	r13, r1
     2c2:	be e6       	ldi	r27, 0x6E	; 110
     2c4:	ab 2e       	mov	r10, r27
     2c6:	b1 2c       	mov	r11, r1
     2c8:	88 24       	eor	r8, r8
     2ca:	83 94       	inc	r8
     2cc:	0e 94 f0 0a 	call	0x15e0	; 0x15e0 <_ZN10MHV_Timer8C1E14mhv_timer_typePVhS2_S2_S2_S2_S2_h>
     2d0:	8d b7       	in	r24, 0x3d	; 61
     2d2:	9e b7       	in	r25, 0x3e	; 62
     2d4:	0f 97       	sbiw	r24, 0x0f	; 15
     2d6:	0f b6       	in	r0, 0x3f	; 63
     2d8:	f8 94       	cli
     2da:	9e bf       	out	0x3e, r25	; 62
     2dc:	0f be       	out	0x3f, r0	; 63
     2de:	8d bf       	out	0x3d, r24	; 61
     2e0:	ed b7       	in	r30, 0x3d	; 61
     2e2:	fe b7       	in	r31, 0x3e	; 62
     2e4:	31 96       	adiw	r30, 0x01	; 1
     2e6:	ad b7       	in	r26, 0x3d	; 61
     2e8:	be b7       	in	r27, 0x3e	; 62
     2ea:	11 96       	adiw	r26, 0x01	; 1
     2ec:	1c 92       	st	X, r1
     2ee:	88 e0       	ldi	r24, 0x08	; 8
     2f0:	81 83       	std	Z+1, r24	; 0x01
     2f2:	87 e2       	ldi	r24, 0x27	; 39
     2f4:	90 e0       	ldi	r25, 0x00	; 0
     2f6:	93 83       	std	Z+3, r25	; 0x03
     2f8:	82 83       	std	Z+2, r24	; 0x02
     2fa:	88 e2       	ldi	r24, 0x28	; 40
     2fc:	90 e0       	ldi	r25, 0x00	; 0
     2fe:	95 83       	std	Z+5, r25	; 0x05
     300:	84 83       	std	Z+4, r24	; 0x04
     302:	86 e2       	ldi	r24, 0x26	; 38
     304:	90 e0       	ldi	r25, 0x00	; 0
     306:	97 83       	std	Z+7, r25	; 0x07
     308:	86 83       	std	Z+6, r24	; 0x06
     30a:	83 e0       	ldi	r24, 0x03	; 3
     30c:	80 87       	std	Z+8, r24	; 0x08
     30e:	8b e0       	ldi	r24, 0x0B	; 11
     310:	81 87       	std	Z+9, r24	; 0x09
     312:	84 e1       	ldi	r24, 0x14	; 20
     314:	82 87       	std	Z+10, r24	; 0x0a
     316:	84 e0       	ldi	r24, 0x04	; 4
     318:	90 e0       	ldi	r25, 0x00	; 0
     31a:	94 87       	std	Z+12, r25	; 0x0c
     31c:	83 87       	std	Z+11, r24	; 0x0b
     31e:	d6 87       	std	Z+14, r29	; 0x0e
     320:	c5 87       	std	Z+13, r28	; 0x0d
     322:	86 e0       	ldi	r24, 0x06	; 6
     324:	92 e0       	ldi	r25, 0x02	; 2
     326:	64 e2       	ldi	r22, 0x24	; 36
     328:	70 e0       	ldi	r23, 0x00	; 0
     32a:	45 e2       	ldi	r20, 0x25	; 37
     32c:	50 e0       	ldi	r21, 0x00	; 0
     32e:	23 e2       	ldi	r18, 0x23	; 35
     330:	30 e0       	ldi	r19, 0x00	; 0
     332:	00 e0       	ldi	r16, 0x00	; 0
     334:	ee 24       	eor	r14, r14
     336:	a7 e2       	ldi	r26, 0x27	; 39
     338:	ca 2e       	mov	r12, r26
     33a:	d1 2c       	mov	r13, r1
     33c:	f8 e2       	ldi	r31, 0x28	; 40
     33e:	af 2e       	mov	r10, r31
     340:	b1 2c       	mov	r11, r1
     342:	e6 e2       	ldi	r30, 0x26	; 38
     344:	8e 2e       	mov	r8, r30
     346:	91 2c       	mov	r9, r1
     348:	0e 94 28 08 	call	0x1050	; 0x1050 <_ZN34MHV_Display_HD44780_Direct_ConnectC1EPVhS1_S1_haS1_S1_S1_haS1_S1_S1_hahjP14MHV_RingBuffer>
     34c:	8d b7       	in	r24, 0x3d	; 61
     34e:	9e b7       	in	r25, 0x3e	; 62
     350:	0f 96       	adiw	r24, 0x0f	; 15
     352:	0f b6       	in	r0, 0x3f	; 63
     354:	f8 94       	cli
     356:	9e bf       	out	0x3e, r25	; 62
     358:	0f be       	out	0x3f, r0	; 63
     35a:	8d bf       	out	0x3d, r24	; 61
     35c:	df 91       	pop	r29
     35e:	cf 91       	pop	r28
     360:	1f 91       	pop	r17
     362:	0f 91       	pop	r16
     364:	ff 90       	pop	r15
     366:	ef 90       	pop	r14
     368:	df 90       	pop	r13
     36a:	cf 90       	pop	r12
     36c:	bf 90       	pop	r11
     36e:	af 90       	pop	r10
     370:	9f 90       	pop	r9
     372:	8f 90       	pop	r8
     374:	08 95       	ret

00000376 <_ZN13MHV_Device_TXC1EP14MHV_RingBuffer>:
     376:	fc 01       	movw	r30, r24
     378:	8d e5       	ldi	r24, 0x5D	; 93
     37a:	91 e0       	ldi	r25, 0x01	; 1
     37c:	91 83       	std	Z+1, r25	; 0x01
     37e:	80 83       	st	Z, r24
     380:	73 87       	std	Z+11, r23	; 0x0b
     382:	62 87       	std	Z+10, r22	; 0x0a
     384:	13 82       	std	Z+3, r1	; 0x03
     386:	12 82       	std	Z+2, r1	; 0x02
     388:	15 82       	std	Z+5, r1	; 0x05
     38a:	14 82       	std	Z+4, r1	; 0x04
     38c:	17 82       	std	Z+7, r1	; 0x07
     38e:	16 82       	std	Z+6, r1	; 0x06
     390:	10 86       	std	Z+8, r1	; 0x08
     392:	11 86       	std	Z+9, r1	; 0x09
     394:	08 95       	ret

00000396 <_ZN13MHV_Device_TX6moreTXEv>:
     396:	cf 93       	push	r28
     398:	df 93       	push	r29
     39a:	ec 01       	movw	r28, r24
     39c:	ee 81       	ldd	r30, Y+6	; 0x06
     39e:	ff 81       	ldd	r31, Y+7	; 0x07
     3a0:	30 97       	sbiw	r30, 0x00	; 0
     3a2:	19 f0       	breq	.+6      	; 0x3aa <_ZN13MHV_Device_TX6moreTXEv+0x14>
     3a4:	8a 81       	ldd	r24, Y+2	; 0x02
     3a6:	9b 81       	ldd	r25, Y+3	; 0x03
     3a8:	09 95       	icall
     3aa:	be 01       	movw	r22, r28
     3ac:	6e 5f       	subi	r22, 0xFE	; 254
     3ae:	7f 4f       	sbci	r23, 0xFF	; 255
     3b0:	8a 85       	ldd	r24, Y+10	; 0x0a
     3b2:	9b 85       	ldd	r25, Y+11	; 0x0b
     3b4:	48 e0       	ldi	r20, 0x08	; 8
     3b6:	0e 94 73 0a 	call	0x14e6	; 0x14e6 <_ZN14MHV_RingBuffer7consumeEPvh>
     3ba:	88 23       	and	r24, r24
     3bc:	21 f0       	breq	.+8      	; 0x3c6 <_ZN13MHV_Device_TX6moreTXEv+0x30>
     3be:	1d 86       	std	Y+13, r1	; 0x0d
     3c0:	1c 86       	std	Y+12, r1	; 0x0c
     3c2:	80 e0       	ldi	r24, 0x00	; 0
     3c4:	05 c0       	rjmp	.+10     	; 0x3d0 <_ZN13MHV_Device_TX6moreTXEv+0x3a>
     3c6:	8a 81       	ldd	r24, Y+2	; 0x02
     3c8:	9b 81       	ldd	r25, Y+3	; 0x03
     3ca:	9d 87       	std	Y+13, r25	; 0x0d
     3cc:	8c 87       	std	Y+12, r24	; 0x0c
     3ce:	81 e0       	ldi	r24, 0x01	; 1
     3d0:	df 91       	pop	r29
     3d2:	cf 91       	pop	r28
     3d4:	08 95       	ret

000003d6 <_ZN13MHV_Device_TX7write_PEPKc>:
     3d6:	ef 92       	push	r14
     3d8:	ff 92       	push	r15
     3da:	0f 93       	push	r16
     3dc:	1f 93       	push	r17
     3de:	df 93       	push	r29
     3e0:	cf 93       	push	r28
     3e2:	cd b7       	in	r28, 0x3d	; 61
     3e4:	de b7       	in	r29, 0x3e	; 62
     3e6:	28 97       	sbiw	r28, 0x08	; 8
     3e8:	0f b6       	in	r0, 0x3f	; 63
     3ea:	f8 94       	cli
     3ec:	de bf       	out	0x3e, r29	; 62
     3ee:	0f be       	out	0x3f, r0	; 63
     3f0:	cd bf       	out	0x3d, r28	; 61
     3f2:	8c 01       	movw	r16, r24
     3f4:	7b 01       	movw	r14, r22
     3f6:	dc 01       	movw	r26, r24
     3f8:	1a 96       	adiw	r26, 0x0a	; 10
     3fa:	8d 91       	ld	r24, X+
     3fc:	9c 91       	ld	r25, X
     3fe:	1b 97       	sbiw	r26, 0x0b	; 11
     400:	68 e0       	ldi	r22, 0x08	; 8
     402:	0e 94 a1 0a 	call	0x1542	; 0x1542 <_ZN14MHV_RingBuffer4fullEh>
     406:	88 23       	and	r24, r24
     408:	09 f5       	brne	.+66     	; 0x44c <_ZN13MHV_Device_TX7write_PEPKc+0x76>
     40a:	fa 82       	std	Y+2, r15	; 0x02
     40c:	e9 82       	std	Y+1, r14	; 0x01
     40e:	1c 82       	std	Y+4, r1	; 0x04
     410:	1b 82       	std	Y+3, r1	; 0x03
     412:	1e 82       	std	Y+6, r1	; 0x06
     414:	1d 82       	std	Y+5, r1	; 0x05
     416:	81 e0       	ldi	r24, 0x01	; 1
     418:	8f 83       	std	Y+7, r24	; 0x07
     41a:	88 87       	std	Y+8, r24	; 0x08
     41c:	f8 01       	movw	r30, r16
     41e:	82 85       	ldd	r24, Z+10	; 0x0a
     420:	93 85       	ldd	r25, Z+11	; 0x0b
     422:	be 01       	movw	r22, r28
     424:	6f 5f       	subi	r22, 0xFF	; 255
     426:	7f 4f       	sbci	r23, 0xFF	; 255
     428:	48 e0       	ldi	r20, 0x08	; 8
     42a:	0e 94 c1 0a 	call	0x1582	; 0x1582 <_ZN14MHV_RingBuffer6appendEPKvh>
     42e:	d8 01       	movw	r26, r16
     430:	1c 96       	adiw	r26, 0x0c	; 12
     432:	8d 91       	ld	r24, X+
     434:	9c 91       	ld	r25, X
     436:	1d 97       	sbiw	r26, 0x0d	; 13
     438:	00 97       	sbiw	r24, 0x00	; 0
     43a:	51 f4       	brne	.+20     	; 0x450 <_ZN13MHV_Device_TX7write_PEPKc+0x7a>
     43c:	ed 91       	ld	r30, X+
     43e:	fc 91       	ld	r31, X
     440:	01 90       	ld	r0, Z+
     442:	f0 81       	ld	r31, Z
     444:	e0 2d       	mov	r30, r0
     446:	c8 01       	movw	r24, r16
     448:	09 95       	icall
     44a:	02 c0       	rjmp	.+4      	; 0x450 <_ZN13MHV_Device_TX7write_PEPKc+0x7a>
     44c:	81 e0       	ldi	r24, 0x01	; 1
     44e:	01 c0       	rjmp	.+2      	; 0x452 <_ZN13MHV_Device_TX7write_PEPKc+0x7c>
     450:	80 e0       	ldi	r24, 0x00	; 0
     452:	28 96       	adiw	r28, 0x08	; 8
     454:	0f b6       	in	r0, 0x3f	; 63
     456:	f8 94       	cli
     458:	de bf       	out	0x3e, r29	; 62
     45a:	0f be       	out	0x3f, r0	; 63
     45c:	cd bf       	out	0x3d, r28	; 61
     45e:	cf 91       	pop	r28
     460:	df 91       	pop	r29
     462:	1f 91       	pop	r17
     464:	0f 91       	pop	r16
     466:	ff 90       	pop	r15
     468:	ef 90       	pop	r14
     46a:	08 95       	ret

0000046c <_ZN13MHV_Device_TX5writeEPKc>:
     46c:	ef 92       	push	r14
     46e:	ff 92       	push	r15
     470:	0f 93       	push	r16
     472:	1f 93       	push	r17
     474:	df 93       	push	r29
     476:	cf 93       	push	r28
     478:	cd b7       	in	r28, 0x3d	; 61
     47a:	de b7       	in	r29, 0x3e	; 62
     47c:	28 97       	sbiw	r28, 0x08	; 8
     47e:	0f b6       	in	r0, 0x3f	; 63
     480:	f8 94       	cli
     482:	de bf       	out	0x3e, r29	; 62
     484:	0f be       	out	0x3f, r0	; 63
     486:	cd bf       	out	0x3d, r28	; 61
     488:	8c 01       	movw	r16, r24
     48a:	7b 01       	movw	r14, r22
     48c:	dc 01       	movw	r26, r24
     48e:	1a 96       	adiw	r26, 0x0a	; 10
     490:	8d 91       	ld	r24, X+
     492:	9c 91       	ld	r25, X
     494:	1b 97       	sbiw	r26, 0x0b	; 11
     496:	68 e0       	ldi	r22, 0x08	; 8
     498:	0e 94 a1 0a 	call	0x1542	; 0x1542 <_ZN14MHV_RingBuffer4fullEh>
     49c:	88 23       	and	r24, r24
     49e:	09 f5       	brne	.+66     	; 0x4e2 <_ZN13MHV_Device_TX5writeEPKc+0x76>
     4a0:	fa 82       	std	Y+2, r15	; 0x02
     4a2:	e9 82       	std	Y+1, r14	; 0x01
     4a4:	1c 82       	std	Y+4, r1	; 0x04
     4a6:	1b 82       	std	Y+3, r1	; 0x03
     4a8:	1e 82       	std	Y+6, r1	; 0x06
     4aa:	1d 82       	std	Y+5, r1	; 0x05
     4ac:	1f 82       	std	Y+7, r1	; 0x07
     4ae:	81 e0       	ldi	r24, 0x01	; 1
     4b0:	88 87       	std	Y+8, r24	; 0x08
     4b2:	f8 01       	movw	r30, r16
     4b4:	82 85       	ldd	r24, Z+10	; 0x0a
     4b6:	93 85       	ldd	r25, Z+11	; 0x0b
     4b8:	be 01       	movw	r22, r28
     4ba:	6f 5f       	subi	r22, 0xFF	; 255
     4bc:	7f 4f       	sbci	r23, 0xFF	; 255
     4be:	48 e0       	ldi	r20, 0x08	; 8
     4c0:	0e 94 c1 0a 	call	0x1582	; 0x1582 <_ZN14MHV_RingBuffer6appendEPKvh>
     4c4:	d8 01       	movw	r26, r16
     4c6:	1c 96       	adiw	r26, 0x0c	; 12
     4c8:	8d 91       	ld	r24, X+
     4ca:	9c 91       	ld	r25, X
     4cc:	1d 97       	sbiw	r26, 0x0d	; 13
     4ce:	00 97       	sbiw	r24, 0x00	; 0
     4d0:	51 f4       	brne	.+20     	; 0x4e6 <_ZN13MHV_Device_TX5writeEPKc+0x7a>
     4d2:	ed 91       	ld	r30, X+
     4d4:	fc 91       	ld	r31, X
     4d6:	01 90       	ld	r0, Z+
     4d8:	f0 81       	ld	r31, Z
     4da:	e0 2d       	mov	r30, r0
     4dc:	c8 01       	movw	r24, r16
     4de:	09 95       	icall
     4e0:	02 c0       	rjmp	.+4      	; 0x4e6 <_ZN13MHV_Device_TX5writeEPKc+0x7a>
     4e2:	81 e0       	ldi	r24, 0x01	; 1
     4e4:	01 c0       	rjmp	.+2      	; 0x4e8 <_ZN13MHV_Device_TX5writeEPKc+0x7c>
     4e6:	80 e0       	ldi	r24, 0x00	; 0
     4e8:	28 96       	adiw	r28, 0x08	; 8
     4ea:	0f b6       	in	r0, 0x3f	; 63
     4ec:	f8 94       	cli
     4ee:	de bf       	out	0x3e, r29	; 62
     4f0:	0f be       	out	0x3f, r0	; 63
     4f2:	cd bf       	out	0x3d, r28	; 61
     4f4:	cf 91       	pop	r28
     4f6:	df 91       	pop	r29
     4f8:	1f 91       	pop	r17
     4fa:	0f 91       	pop	r16
     4fc:	ff 90       	pop	r15
     4fe:	ef 90       	pop	r14
     500:	08 95       	ret

00000502 <_ZN13MHV_Device_TX7write_PEPKcj>:
     502:	cf 92       	push	r12
     504:	df 92       	push	r13
     506:	ef 92       	push	r14
     508:	ff 92       	push	r15
     50a:	0f 93       	push	r16
     50c:	1f 93       	push	r17
     50e:	df 93       	push	r29
     510:	cf 93       	push	r28
     512:	cd b7       	in	r28, 0x3d	; 61
     514:	de b7       	in	r29, 0x3e	; 62
     516:	28 97       	sbiw	r28, 0x08	; 8
     518:	0f b6       	in	r0, 0x3f	; 63
     51a:	f8 94       	cli
     51c:	de bf       	out	0x3e, r29	; 62
     51e:	0f be       	out	0x3f, r0	; 63
     520:	cd bf       	out	0x3d, r28	; 61
     522:	8c 01       	movw	r16, r24
     524:	6b 01       	movw	r12, r22
     526:	7a 01       	movw	r14, r20
     528:	dc 01       	movw	r26, r24
     52a:	1a 96       	adiw	r26, 0x0a	; 10
     52c:	8d 91       	ld	r24, X+
     52e:	9c 91       	ld	r25, X
     530:	1b 97       	sbiw	r26, 0x0b	; 11
     532:	68 e0       	ldi	r22, 0x08	; 8
     534:	0e 94 a1 0a 	call	0x1542	; 0x1542 <_ZN14MHV_RingBuffer4fullEh>
     538:	88 23       	and	r24, r24
     53a:	09 f5       	brne	.+66     	; 0x57e <_ZN13MHV_Device_TX7write_PEPKcj+0x7c>
     53c:	da 82       	std	Y+2, r13	; 0x02
     53e:	c9 82       	std	Y+1, r12	; 0x01
     540:	fc 82       	std	Y+4, r15	; 0x04
     542:	eb 82       	std	Y+3, r14	; 0x03
     544:	1e 82       	std	Y+6, r1	; 0x06
     546:	1d 82       	std	Y+5, r1	; 0x05
     548:	81 e0       	ldi	r24, 0x01	; 1
     54a:	8f 83       	std	Y+7, r24	; 0x07
     54c:	18 86       	std	Y+8, r1	; 0x08
     54e:	f8 01       	movw	r30, r16
     550:	82 85       	ldd	r24, Z+10	; 0x0a
     552:	93 85       	ldd	r25, Z+11	; 0x0b
     554:	be 01       	movw	r22, r28
     556:	6f 5f       	subi	r22, 0xFF	; 255
     558:	7f 4f       	sbci	r23, 0xFF	; 255
     55a:	48 e0       	ldi	r20, 0x08	; 8
     55c:	0e 94 c1 0a 	call	0x1582	; 0x1582 <_ZN14MHV_RingBuffer6appendEPKvh>
     560:	d8 01       	movw	r26, r16
     562:	1c 96       	adiw	r26, 0x0c	; 12
     564:	8d 91       	ld	r24, X+
     566:	9c 91       	ld	r25, X
     568:	1d 97       	sbiw	r26, 0x0d	; 13
     56a:	00 97       	sbiw	r24, 0x00	; 0
     56c:	51 f4       	brne	.+20     	; 0x582 <_ZN13MHV_Device_TX7write_PEPKcj+0x80>
     56e:	ed 91       	ld	r30, X+
     570:	fc 91       	ld	r31, X
     572:	01 90       	ld	r0, Z+
     574:	f0 81       	ld	r31, Z
     576:	e0 2d       	mov	r30, r0
     578:	c8 01       	movw	r24, r16
     57a:	09 95       	icall
     57c:	02 c0       	rjmp	.+4      	; 0x582 <_ZN13MHV_Device_TX7write_PEPKcj+0x80>
     57e:	81 e0       	ldi	r24, 0x01	; 1
     580:	01 c0       	rjmp	.+2      	; 0x584 <_ZN13MHV_Device_TX7write_PEPKcj+0x82>
     582:	80 e0       	ldi	r24, 0x00	; 0
     584:	28 96       	adiw	r28, 0x08	; 8
     586:	0f b6       	in	r0, 0x3f	; 63
     588:	f8 94       	cli
     58a:	de bf       	out	0x3e, r29	; 62
     58c:	0f be       	out	0x3f, r0	; 63
     58e:	cd bf       	out	0x3d, r28	; 61
     590:	cf 91       	pop	r28
     592:	df 91       	pop	r29
     594:	1f 91       	pop	r17
     596:	0f 91       	pop	r16
     598:	ff 90       	pop	r15
     59a:	ef 90       	pop	r14
     59c:	df 90       	pop	r13
     59e:	cf 90       	pop	r12
     5a0:	08 95       	ret

000005a2 <_ZN13MHV_Device_TX5writeEPKcj>:
     5a2:	cf 92       	push	r12
     5a4:	df 92       	push	r13
     5a6:	ef 92       	push	r14
     5a8:	ff 92       	push	r15
     5aa:	0f 93       	push	r16
     5ac:	1f 93       	push	r17
     5ae:	df 93       	push	r29
     5b0:	cf 93       	push	r28
     5b2:	cd b7       	in	r28, 0x3d	; 61
     5b4:	de b7       	in	r29, 0x3e	; 62
     5b6:	28 97       	sbiw	r28, 0x08	; 8
     5b8:	0f b6       	in	r0, 0x3f	; 63
     5ba:	f8 94       	cli
     5bc:	de bf       	out	0x3e, r29	; 62
     5be:	0f be       	out	0x3f, r0	; 63
     5c0:	cd bf       	out	0x3d, r28	; 61
     5c2:	8c 01       	movw	r16, r24
     5c4:	6b 01       	movw	r12, r22
     5c6:	7a 01       	movw	r14, r20
     5c8:	dc 01       	movw	r26, r24
     5ca:	1a 96       	adiw	r26, 0x0a	; 10
     5cc:	8d 91       	ld	r24, X+
     5ce:	9c 91       	ld	r25, X
     5d0:	1b 97       	sbiw	r26, 0x0b	; 11
     5d2:	68 e0       	ldi	r22, 0x08	; 8
     5d4:	0e 94 a1 0a 	call	0x1542	; 0x1542 <_ZN14MHV_RingBuffer4fullEh>
     5d8:	88 23       	and	r24, r24
     5da:	01 f5       	brne	.+64     	; 0x61c <_ZN13MHV_Device_TX5writeEPKcj+0x7a>
     5dc:	da 82       	std	Y+2, r13	; 0x02
     5de:	c9 82       	std	Y+1, r12	; 0x01
     5e0:	fc 82       	std	Y+4, r15	; 0x04
     5e2:	eb 82       	std	Y+3, r14	; 0x03
     5e4:	1e 82       	std	Y+6, r1	; 0x06
     5e6:	1d 82       	std	Y+5, r1	; 0x05
     5e8:	1f 82       	std	Y+7, r1	; 0x07
     5ea:	18 86       	std	Y+8, r1	; 0x08
     5ec:	f8 01       	movw	r30, r16
     5ee:	82 85       	ldd	r24, Z+10	; 0x0a
     5f0:	93 85       	ldd	r25, Z+11	; 0x0b
     5f2:	be 01       	movw	r22, r28
     5f4:	6f 5f       	subi	r22, 0xFF	; 255
     5f6:	7f 4f       	sbci	r23, 0xFF	; 255
     5f8:	48 e0       	ldi	r20, 0x08	; 8
     5fa:	0e 94 c1 0a 	call	0x1582	; 0x1582 <_ZN14MHV_RingBuffer6appendEPKvh>
     5fe:	d8 01       	movw	r26, r16
     600:	1c 96       	adiw	r26, 0x0c	; 12
     602:	8d 91       	ld	r24, X+
     604:	9c 91       	ld	r25, X
     606:	1d 97       	sbiw	r26, 0x0d	; 13
     608:	00 97       	sbiw	r24, 0x00	; 0
     60a:	51 f4       	brne	.+20     	; 0x620 <_ZN13MHV_Device_TX5writeEPKcj+0x7e>
     60c:	ed 91       	ld	r30, X+
     60e:	fc 91       	ld	r31, X
     610:	01 90       	ld	r0, Z+
     612:	f0 81       	ld	r31, Z
     614:	e0 2d       	mov	r30, r0
     616:	c8 01       	movw	r24, r16
     618:	09 95       	icall
     61a:	02 c0       	rjmp	.+4      	; 0x620 <_ZN13MHV_Device_TX5writeEPKcj+0x7e>
     61c:	81 e0       	ldi	r24, 0x01	; 1
     61e:	01 c0       	rjmp	.+2      	; 0x622 <_ZN13MHV_Device_TX5writeEPKcj+0x80>
     620:	80 e0       	ldi	r24, 0x00	; 0
     622:	28 96       	adiw	r28, 0x08	; 8
     624:	0f b6       	in	r0, 0x3f	; 63
     626:	f8 94       	cli
     628:	de bf       	out	0x3e, r29	; 62
     62a:	0f be       	out	0x3f, r0	; 63
     62c:	cd bf       	out	0x3d, r28	; 61
     62e:	cf 91       	pop	r28
     630:	df 91       	pop	r29
     632:	1f 91       	pop	r17
     634:	0f 91       	pop	r16
     636:	ff 90       	pop	r15
     638:	ef 90       	pop	r14
     63a:	df 90       	pop	r13
     63c:	cf 90       	pop	r12
     63e:	08 95       	ret

00000640 <_ZN21MHV_Display_Character12runTxBuffersEv>:
     640:	fc 01       	movw	r30, r24
     642:	20 89       	ldd	r18, Z+16	; 0x10
     644:	31 89       	ldd	r19, Z+17	; 0x11
     646:	21 50       	subi	r18, 0x01	; 1
     648:	30 40       	sbci	r19, 0x00	; 0
     64a:	33 8b       	std	Z+19, r19	; 0x13
     64c:	22 8b       	std	Z+18, r18	; 0x12
     64e:	0e 94 cb 01 	call	0x396	; 0x396 <_ZN13MHV_Device_TX6moreTXEv>
     652:	08 95       	ret

00000654 <_ZN21MHV_Display_CharacterC1EjjP14MHV_RingBuffer>:
     654:	ef 92       	push	r14
     656:	ff 92       	push	r15
     658:	0f 93       	push	r16
     65a:	1f 93       	push	r17
     65c:	cf 93       	push	r28
     65e:	df 93       	push	r29
     660:	ec 01       	movw	r28, r24
     662:	7b 01       	movw	r14, r22
     664:	8a 01       	movw	r16, r20
     666:	b9 01       	movw	r22, r18
     668:	0e 94 bb 01 	call	0x376	; 0x376 <_ZN13MHV_Device_TXC1EP14MHV_RingBuffer>
     66c:	83 e6       	ldi	r24, 0x63	; 99
     66e:	91 e0       	ldi	r25, 0x01	; 1
     670:	99 83       	std	Y+1, r25	; 0x01
     672:	88 83       	st	Y, r24
     674:	f9 8a       	std	Y+17, r15	; 0x11
     676:	e8 8a       	std	Y+16, r14	; 0x10
     678:	1f 87       	std	Y+15, r17	; 0x0f
     67a:	0e 87       	std	Y+14, r16	; 0x0e
     67c:	81 e0       	ldi	r24, 0x01	; 1
     67e:	88 8f       	std	Y+24, r24	; 0x18
     680:	89 8f       	std	Y+25, r24	; 0x19
     682:	1d 8a       	std	Y+21, r1	; 0x15
     684:	1c 8a       	std	Y+20, r1	; 0x14
     686:	1f 8a       	std	Y+23, r1	; 0x17
     688:	1e 8a       	std	Y+22, r1	; 0x16
     68a:	df 91       	pop	r29
     68c:	cf 91       	pop	r28
     68e:	1f 91       	pop	r17
     690:	0f 91       	pop	r16
     692:	ff 90       	pop	r15
     694:	ef 90       	pop	r14
     696:	08 95       	ret

00000698 <_ZN21MHV_Display_Character9setCursorEjj>:
     698:	dc 01       	movw	r26, r24
     69a:	55 96       	adiw	r26, 0x15	; 21
     69c:	5c 93       	st	X, r21
     69e:	4e 93       	st	-X, r20
     6a0:	54 97       	sbiw	r26, 0x14	; 20
     6a2:	57 96       	adiw	r26, 0x17	; 23
     6a4:	7c 93       	st	X, r23
     6a6:	6e 93       	st	-X, r22
     6a8:	56 97       	sbiw	r26, 0x16	; 22
     6aa:	ed 91       	ld	r30, X+
     6ac:	fc 91       	ld	r31, X
     6ae:	06 80       	ldd	r0, Z+6	; 0x06
     6b0:	f7 81       	ldd	r31, Z+7	; 0x07
     6b2:	e0 2d       	mov	r30, r0
     6b4:	09 95       	icall
     6b6:	08 95       	ret

000006b8 <_ZN21MHV_Display_Character16scrollVerticallyEv>:
     6b8:	bf 92       	push	r11
     6ba:	cf 92       	push	r12
     6bc:	df 92       	push	r13
     6be:	ef 92       	push	r14
     6c0:	ff 92       	push	r15
     6c2:	0f 93       	push	r16
     6c4:	1f 93       	push	r17
     6c6:	cf 93       	push	r28
     6c8:	df 93       	push	r29
     6ca:	ec 01       	movw	r28, r24
     6cc:	0e 85       	ldd	r16, Y+14	; 0x0e
     6ce:	1f 85       	ldd	r17, Y+15	; 0x0f
     6d0:	02 50       	subi	r16, 0x02	; 2
     6d2:	10 40       	sbci	r17, 0x00	; 0
     6d4:	2c c0       	rjmp	.+88     	; 0x72e <_ZN21MHV_Display_Character16scrollVerticallyEv+0x76>
     6d6:	e8 81       	ld	r30, Y
     6d8:	f9 81       	ldd	r31, Y+1	; 0x01
     6da:	06 80       	ldd	r0, Z+6	; 0x06
     6dc:	f7 81       	ldd	r31, Z+7	; 0x07
     6de:	e0 2d       	mov	r30, r0
     6e0:	ce 01       	movw	r24, r28
     6e2:	b7 01       	movw	r22, r14
     6e4:	a6 01       	movw	r20, r12
     6e6:	09 95       	icall
     6e8:	e8 81       	ld	r30, Y
     6ea:	f9 81       	ldd	r31, Y+1	; 0x01
     6ec:	04 80       	ldd	r0, Z+4	; 0x04
     6ee:	f5 81       	ldd	r31, Z+5	; 0x05
     6f0:	e0 2d       	mov	r30, r0
     6f2:	ce 01       	movw	r24, r28
     6f4:	09 95       	icall
     6f6:	b8 2e       	mov	r11, r24
     6f8:	e8 81       	ld	r30, Y
     6fa:	f9 81       	ldd	r31, Y+1	; 0x01
     6fc:	06 80       	ldd	r0, Z+6	; 0x06
     6fe:	f7 81       	ldd	r31, Z+7	; 0x07
     700:	e0 2d       	mov	r30, r0
     702:	ce 01       	movw	r24, r28
     704:	b7 01       	movw	r22, r14
     706:	a8 01       	movw	r20, r16
     708:	09 95       	icall
     70a:	e8 81       	ld	r30, Y
     70c:	f9 81       	ldd	r31, Y+1	; 0x01
     70e:	02 80       	ldd	r0, Z+2	; 0x02
     710:	f3 81       	ldd	r31, Z+3	; 0x03
     712:	e0 2d       	mov	r30, r0
     714:	ce 01       	movw	r24, r28
     716:	6b 2d       	mov	r22, r11
     718:	09 95       	icall
     71a:	08 94       	sec
     71c:	e1 1c       	adc	r14, r1
     71e:	f1 1c       	adc	r15, r1
     720:	88 89       	ldd	r24, Y+16	; 0x10
     722:	99 89       	ldd	r25, Y+17	; 0x11
     724:	e8 16       	cp	r14, r24
     726:	f9 06       	cpc	r15, r25
     728:	b0 f2       	brcs	.-84     	; 0x6d6 <_ZN21MHV_Display_Character16scrollVerticallyEv+0x1e>
     72a:	01 50       	subi	r16, 0x01	; 1
     72c:	10 40       	sbci	r17, 0x00	; 0
     72e:	01 15       	cp	r16, r1
     730:	11 05       	cpc	r17, r1
     732:	39 f0       	breq	.+14     	; 0x742 <_ZN21MHV_Display_Character16scrollVerticallyEv+0x8a>
     734:	ee 24       	eor	r14, r14
     736:	ff 24       	eor	r15, r15
     738:	68 01       	movw	r12, r16
     73a:	08 94       	sec
     73c:	c1 1c       	adc	r12, r1
     73e:	d1 1c       	adc	r13, r1
     740:	ef cf       	rjmp	.-34     	; 0x720 <_ZN21MHV_Display_Character16scrollVerticallyEv+0x68>
     742:	e8 81       	ld	r30, Y
     744:	f9 81       	ldd	r31, Y+1	; 0x01
     746:	06 80       	ldd	r0, Z+6	; 0x06
     748:	f7 81       	ldd	r31, Z+7	; 0x07
     74a:	e0 2d       	mov	r30, r0
     74c:	ce 01       	movw	r24, r28
     74e:	60 e0       	ldi	r22, 0x00	; 0
     750:	70 e0       	ldi	r23, 0x00	; 0
     752:	40 e0       	ldi	r20, 0x00	; 0
     754:	50 e0       	ldi	r21, 0x00	; 0
     756:	09 95       	icall
     758:	00 e0       	ldi	r16, 0x00	; 0
     75a:	10 e0       	ldi	r17, 0x00	; 0
     75c:	0a c0       	rjmp	.+20     	; 0x772 <_ZN21MHV_Display_Character16scrollVerticallyEv+0xba>
     75e:	e8 81       	ld	r30, Y
     760:	f9 81       	ldd	r31, Y+1	; 0x01
     762:	02 80       	ldd	r0, Z+2	; 0x02
     764:	f3 81       	ldd	r31, Z+3	; 0x03
     766:	e0 2d       	mov	r30, r0
     768:	ce 01       	movw	r24, r28
     76a:	60 e2       	ldi	r22, 0x20	; 32
     76c:	09 95       	icall
     76e:	0f 5f       	subi	r16, 0xFF	; 255
     770:	1f 4f       	sbci	r17, 0xFF	; 255
     772:	88 89       	ldd	r24, Y+16	; 0x10
     774:	99 89       	ldd	r25, Y+17	; 0x11
     776:	08 17       	cp	r16, r24
     778:	19 07       	cpc	r17, r25
     77a:	88 f3       	brcs	.-30     	; 0x75e <_ZN21MHV_Display_Character16scrollVerticallyEv+0xa6>
     77c:	ce 01       	movw	r24, r28
     77e:	60 e0       	ldi	r22, 0x00	; 0
     780:	70 e0       	ldi	r23, 0x00	; 0
     782:	40 e0       	ldi	r20, 0x00	; 0
     784:	50 e0       	ldi	r21, 0x00	; 0
     786:	0e 94 4c 03 	call	0x698	; 0x698 <_ZN21MHV_Display_Character9setCursorEjj>
     78a:	df 91       	pop	r29
     78c:	cf 91       	pop	r28
     78e:	1f 91       	pop	r17
     790:	0f 91       	pop	r16
     792:	ff 90       	pop	r15
     794:	ef 90       	pop	r14
     796:	df 90       	pop	r13
     798:	cf 90       	pop	r12
     79a:	bf 90       	pop	r11
     79c:	08 95       	ret

0000079e <_ZN21MHV_Display_Character9writeCharEc>:
     79e:	1f 93       	push	r17
     7a0:	cf 93       	push	r28
     7a2:	df 93       	push	r29
     7a4:	ec 01       	movw	r28, r24
     7a6:	16 2f       	mov	r17, r22
     7a8:	69 30       	cpi	r22, 0x09	; 9
     7aa:	f9 f0       	breq	.+62     	; 0x7ea <_ZN21MHV_Display_Character9writeCharEc+0x4c>
     7ac:	6a 30       	cpi	r22, 0x0A	; 10
     7ae:	09 f4       	brne	.+2      	; 0x7b2 <_ZN21MHV_Display_Character9writeCharEc+0x14>
     7b0:	46 c0       	rjmp	.+140    	; 0x83e <_ZN21MHV_Display_Character9writeCharEc+0xa0>
     7b2:	68 30       	cpi	r22, 0x08	; 8
     7b4:	09 f0       	breq	.+2      	; 0x7b8 <_ZN21MHV_Display_Character9writeCharEc+0x1a>
     7b6:	5b c0       	rjmp	.+182    	; 0x86e <_ZN21MHV_Display_Character9writeCharEc+0xd0>
     7b8:	88 8d       	ldd	r24, Y+24	; 0x18
     7ba:	88 23       	and	r24, r24
     7bc:	89 f0       	breq	.+34     	; 0x7e0 <_ZN21MHV_Display_Character9writeCharEc+0x42>
     7be:	8e 89       	ldd	r24, Y+22	; 0x16
     7c0:	9f 89       	ldd	r25, Y+23	; 0x17
     7c2:	00 97       	sbiw	r24, 0x00	; 0
     7c4:	69 f4       	brne	.+26     	; 0x7e0 <_ZN21MHV_Display_Character9writeCharEc+0x42>
     7c6:	8c 89       	ldd	r24, Y+20	; 0x14
     7c8:	9d 89       	ldd	r25, Y+21	; 0x15
     7ca:	01 96       	adiw	r24, 0x01	; 1
     7cc:	2e 85       	ldd	r18, Y+14	; 0x0e
     7ce:	3f 85       	ldd	r19, Y+15	; 0x0f
     7d0:	82 17       	cp	r24, r18
     7d2:	93 07       	cpc	r25, r19
     7d4:	10 f4       	brcc	.+4      	; 0x7da <_ZN21MHV_Display_Character9writeCharEc+0x3c>
     7d6:	9d 8b       	std	Y+21, r25	; 0x15
     7d8:	8c 8b       	std	Y+20, r24	; 0x14
     7da:	68 89       	ldd	r22, Y+16	; 0x10
     7dc:	79 89       	ldd	r23, Y+17	; 0x11
     7de:	02 c0       	rjmp	.+4      	; 0x7e4 <_ZN21MHV_Display_Character9writeCharEc+0x46>
     7e0:	6e 89       	ldd	r22, Y+22	; 0x16
     7e2:	7f 89       	ldd	r23, Y+23	; 0x17
     7e4:	61 50       	subi	r22, 0x01	; 1
     7e6:	70 40       	sbci	r23, 0x00	; 0
     7e8:	26 c0       	rjmp	.+76     	; 0x836 <_ZN21MHV_Display_Character9writeCharEc+0x98>
     7ea:	8e 89       	ldd	r24, Y+22	; 0x16
     7ec:	9f 89       	ldd	r25, Y+23	; 0x17
     7ee:	04 96       	adiw	r24, 0x04	; 4
     7f0:	8c 7f       	andi	r24, 0xFC	; 252
     7f2:	9f 8b       	std	Y+23, r25	; 0x17
     7f4:	8e 8b       	std	Y+22, r24	; 0x16
     7f6:	28 89       	ldd	r18, Y+16	; 0x10
     7f8:	39 89       	ldd	r19, Y+17	; 0x11
     7fa:	82 17       	cp	r24, r18
     7fc:	93 07       	cpc	r25, r19
     7fe:	c8 f0       	brcs	.+50     	; 0x832 <_ZN21MHV_Display_Character9writeCharEc+0x94>
     800:	88 8d       	ldd	r24, Y+24	; 0x18
     802:	88 23       	and	r24, r24
     804:	91 f0       	breq	.+36     	; 0x82a <_ZN21MHV_Display_Character9writeCharEc+0x8c>
     806:	8c 89       	ldd	r24, Y+20	; 0x14
     808:	9d 89       	ldd	r25, Y+21	; 0x15
     80a:	00 97       	sbiw	r24, 0x00	; 0
     80c:	21 f0       	breq	.+8      	; 0x816 <_ZN21MHV_Display_Character9writeCharEc+0x78>
     80e:	01 97       	sbiw	r24, 0x01	; 1
     810:	9d 8b       	std	Y+21, r25	; 0x15
     812:	8c 8b       	std	Y+20, r24	; 0x14
     814:	07 c0       	rjmp	.+14     	; 0x824 <_ZN21MHV_Display_Character9writeCharEc+0x86>
     816:	89 8d       	ldd	r24, Y+25	; 0x19
     818:	88 23       	and	r24, r24
     81a:	21 f0       	breq	.+8      	; 0x824 <_ZN21MHV_Display_Character9writeCharEc+0x86>
     81c:	ce 01       	movw	r24, r28
     81e:	0e 94 5c 03 	call	0x6b8	; 0x6b8 <_ZN21MHV_Display_Character16scrollVerticallyEv>
     822:	55 c0       	rjmp	.+170    	; 0x8ce <_ZN21MHV_Display_Character9writeCharEc+0x130>
     824:	1f 8a       	std	Y+23, r1	; 0x17
     826:	1e 8a       	std	Y+22, r1	; 0x16
     828:	04 c0       	rjmp	.+8      	; 0x832 <_ZN21MHV_Display_Character9writeCharEc+0x94>
     82a:	21 50       	subi	r18, 0x01	; 1
     82c:	30 40       	sbci	r19, 0x00	; 0
     82e:	3f 8b       	std	Y+23, r19	; 0x17
     830:	2e 8b       	std	Y+22, r18	; 0x16
     832:	6e 89       	ldd	r22, Y+22	; 0x16
     834:	7f 89       	ldd	r23, Y+23	; 0x17
     836:	4c 89       	ldd	r20, Y+20	; 0x14
     838:	5d 89       	ldd	r21, Y+21	; 0x15
     83a:	ce 01       	movw	r24, r28
     83c:	15 c0       	rjmp	.+42     	; 0x868 <_ZN21MHV_Display_Character9writeCharEc+0xca>
     83e:	8c 89       	ldd	r24, Y+20	; 0x14
     840:	9d 89       	ldd	r25, Y+21	; 0x15
     842:	00 97       	sbiw	r24, 0x00	; 0
     844:	21 f0       	breq	.+8      	; 0x84e <_ZN21MHV_Display_Character9writeCharEc+0xb0>
     846:	01 97       	sbiw	r24, 0x01	; 1
     848:	9d 8b       	std	Y+21, r25	; 0x15
     84a:	8c 8b       	std	Y+20, r24	; 0x14
     84c:	06 c0       	rjmp	.+12     	; 0x85a <_ZN21MHV_Display_Character9writeCharEc+0xbc>
     84e:	89 8d       	ldd	r24, Y+25	; 0x19
     850:	88 23       	and	r24, r24
     852:	19 f0       	breq	.+6      	; 0x85a <_ZN21MHV_Display_Character9writeCharEc+0xbc>
     854:	ce 01       	movw	r24, r28
     856:	0e 94 5c 03 	call	0x6b8	; 0x6b8 <_ZN21MHV_Display_Character16scrollVerticallyEv>
     85a:	1f 8a       	std	Y+23, r1	; 0x17
     85c:	1e 8a       	std	Y+22, r1	; 0x16
     85e:	4c 89       	ldd	r20, Y+20	; 0x14
     860:	5d 89       	ldd	r21, Y+21	; 0x15
     862:	ce 01       	movw	r24, r28
     864:	60 e0       	ldi	r22, 0x00	; 0
     866:	70 e0       	ldi	r23, 0x00	; 0
     868:	0e 94 4c 03 	call	0x698	; 0x698 <_ZN21MHV_Display_Character9setCursorEjj>
     86c:	30 c0       	rjmp	.+96     	; 0x8ce <_ZN21MHV_Display_Character9writeCharEc+0x130>
     86e:	2e 89       	ldd	r18, Y+22	; 0x16
     870:	3f 89       	ldd	r19, Y+23	; 0x17
     872:	88 89       	ldd	r24, Y+16	; 0x10
     874:	99 89       	ldd	r25, Y+17	; 0x11
     876:	01 97       	sbiw	r24, 0x01	; 1
     878:	a9 01       	movw	r20, r18
     87a:	4f 5f       	subi	r20, 0xFF	; 255
     87c:	5f 4f       	sbci	r21, 0xFF	; 255
     87e:	5f 8b       	std	Y+23, r21	; 0x17
     880:	4e 8b       	std	Y+22, r20	; 0x16
     882:	28 17       	cp	r18, r24
     884:	39 07       	cpc	r19, r25
     886:	d8 f0       	brcs	.+54     	; 0x8be <_ZN21MHV_Display_Character9writeCharEc+0x120>
     888:	88 8d       	ldd	r24, Y+24	; 0x18
     88a:	88 23       	and	r24, r24
     88c:	c1 f0       	breq	.+48     	; 0x8be <_ZN21MHV_Display_Character9writeCharEc+0x120>
     88e:	1f 8a       	std	Y+23, r1	; 0x17
     890:	1e 8a       	std	Y+22, r1	; 0x16
     892:	8c 89       	ldd	r24, Y+20	; 0x14
     894:	9d 89       	ldd	r25, Y+21	; 0x15
     896:	00 97       	sbiw	r24, 0x00	; 0
     898:	21 f0       	breq	.+8      	; 0x8a2 <_ZN21MHV_Display_Character9writeCharEc+0x104>
     89a:	01 97       	sbiw	r24, 0x01	; 1
     89c:	9d 8b       	std	Y+21, r25	; 0x15
     89e:	8c 8b       	std	Y+20, r24	; 0x14
     8a0:	0e c0       	rjmp	.+28     	; 0x8be <_ZN21MHV_Display_Character9writeCharEc+0x120>
     8a2:	89 8d       	ldd	r24, Y+25	; 0x19
     8a4:	88 23       	and	r24, r24
     8a6:	21 f0       	breq	.+8      	; 0x8b0 <_ZN21MHV_Display_Character9writeCharEc+0x112>
     8a8:	ce 01       	movw	r24, r28
     8aa:	0e 94 5c 03 	call	0x6b8	; 0x6b8 <_ZN21MHV_Display_Character16scrollVerticallyEv>
     8ae:	07 c0       	rjmp	.+14     	; 0x8be <_ZN21MHV_Display_Character9writeCharEc+0x120>
     8b0:	ce 01       	movw	r24, r28
     8b2:	60 e0       	ldi	r22, 0x00	; 0
     8b4:	70 e0       	ldi	r23, 0x00	; 0
     8b6:	40 e0       	ldi	r20, 0x00	; 0
     8b8:	50 e0       	ldi	r21, 0x00	; 0
     8ba:	0e 94 4c 03 	call	0x698	; 0x698 <_ZN21MHV_Display_Character9setCursorEjj>
     8be:	e8 81       	ld	r30, Y
     8c0:	f9 81       	ldd	r31, Y+1	; 0x01
     8c2:	02 80       	ldd	r0, Z+2	; 0x02
     8c4:	f3 81       	ldd	r31, Z+3	; 0x03
     8c6:	e0 2d       	mov	r30, r0
     8c8:	ce 01       	movw	r24, r28
     8ca:	61 2f       	mov	r22, r17
     8cc:	09 95       	icall
     8ce:	df 91       	pop	r29
     8d0:	cf 91       	pop	r28
     8d2:	1f 91       	pop	r17
     8d4:	08 95       	ret

000008d6 <_ZN21MHV_Display_Character13writeBuffer_PEPijPKcj>:
     8d6:	af 92       	push	r10
     8d8:	bf 92       	push	r11
     8da:	cf 92       	push	r12
     8dc:	df 92       	push	r13
     8de:	ef 92       	push	r14
     8e0:	ff 92       	push	r15
     8e2:	0f 93       	push	r16
     8e4:	1f 93       	push	r17
     8e6:	cf 93       	push	r28
     8e8:	df 93       	push	r29
     8ea:	6c 01       	movw	r12, r24
     8ec:	7b 01       	movw	r14, r22
     8ee:	59 01       	movw	r10, r18
     8f0:	c0 e0       	ldi	r28, 0x00	; 0
     8f2:	d0 e0       	ldi	r29, 0x00	; 0
     8f4:	06 c0       	rjmp	.+12     	; 0x902 <__stack+0x3>
     8f6:	6f 5f       	subi	r22, 0xFF	; 255
     8f8:	7f 4f       	sbci	r23, 0xFF	; 255
     8fa:	f7 01       	movw	r30, r14
     8fc:	71 83       	std	Z+1, r23	; 0x01
     8fe:	60 83       	st	Z, r22
     900:	21 96       	adiw	r28, 0x01	; 1
     902:	f7 01       	movw	r30, r14
     904:	60 81       	ld	r22, Z
     906:	71 81       	ldd	r23, Z+1	; 0x01
     908:	77 fd       	sbrc	r23, 7
     90a:	f5 cf       	rjmp	.-22     	; 0x8f6 <_ZN21MHV_Display_Character13writeBuffer_PEPijPKcj+0x20>
     90c:	c6 01       	movw	r24, r12
     90e:	0e 94 4c 03 	call	0x698	; 0x698 <_ZN21MHV_Display_Character9setCursorEjj>
     912:	80 e0       	ldi	r24, 0x00	; 0
     914:	c0 17       	cp	r28, r16
     916:	d1 07       	cpc	r29, r17
     918:	c8 f4       	brcc	.+50     	; 0x94c <__stack+0x4d>
     91a:	f7 01       	movw	r30, r14
     91c:	20 81       	ld	r18, Z
     91e:	31 81       	ldd	r19, Z+1	; 0x01
     920:	f6 01       	movw	r30, r12
     922:	40 89       	ldd	r20, Z+16	; 0x10
     924:	51 89       	ldd	r21, Z+17	; 0x11
     926:	b9 01       	movw	r22, r18
     928:	6f 5f       	subi	r22, 0xFF	; 255
     92a:	7f 4f       	sbci	r23, 0xFF	; 255
     92c:	f7 01       	movw	r30, r14
     92e:	71 83       	std	Z+1, r23	; 0x01
     930:	60 83       	st	Z, r22
     932:	24 17       	cp	r18, r20
     934:	35 07       	cpc	r19, r21
     936:	54 f4       	brge	.+20     	; 0x94c <__stack+0x4d>
     938:	f5 01       	movw	r30, r10
     93a:	ec 0f       	add	r30, r28
     93c:	fd 1f       	adc	r31, r29
     93e:	21 96       	adiw	r28, 0x01	; 1
     940:	64 91       	lpm	r22, Z
     942:	c6 01       	movw	r24, r12
     944:	0e 94 cf 03 	call	0x79e	; 0x79e <_ZN21MHV_Display_Character9writeCharEc>
     948:	81 e0       	ldi	r24, 0x01	; 1
     94a:	e4 cf       	rjmp	.-56     	; 0x914 <__stack+0x15>
     94c:	df 91       	pop	r29
     94e:	cf 91       	pop	r28
     950:	1f 91       	pop	r17
     952:	0f 91       	pop	r16
     954:	ff 90       	pop	r15
     956:	ef 90       	pop	r14
     958:	df 90       	pop	r13
     95a:	cf 90       	pop	r12
     95c:	bf 90       	pop	r11
     95e:	af 90       	pop	r10
     960:	08 95       	ret

00000962 <_ZN21MHV_Display_Character13writeString_PEPijPKc>:
     962:	af 92       	push	r10
     964:	bf 92       	push	r11
     966:	cf 92       	push	r12
     968:	df 92       	push	r13
     96a:	ef 92       	push	r14
     96c:	ff 92       	push	r15
     96e:	0f 93       	push	r16
     970:	1f 93       	push	r17
     972:	cf 93       	push	r28
     974:	df 93       	push	r29
     976:	7c 01       	movw	r14, r24
     978:	8b 01       	movw	r16, r22
     97a:	6a 01       	movw	r12, r20
     97c:	a2 2e       	mov	r10, r18
     97e:	e5 01       	movw	r28, r10
     980:	5e 01       	movw	r10, r28
     982:	b3 2e       	mov	r11, r19
     984:	e5 01       	movw	r28, r10
     986:	0a c0       	rjmp	.+20     	; 0x99c <_ZN21MHV_Display_Character13writeString_PEPijPKc+0x3a>
     988:	6f 5f       	subi	r22, 0xFF	; 255
     98a:	7f 4f       	sbci	r23, 0xFF	; 255
     98c:	f8 01       	movw	r30, r16
     98e:	71 83       	std	Z+1, r23	; 0x01
     990:	60 83       	st	Z, r22
     992:	21 96       	adiw	r28, 0x01	; 1
     994:	fe 01       	movw	r30, r28
     996:	84 91       	lpm	r24, Z
     998:	88 23       	and	r24, r24
     99a:	41 f1       	breq	.+80     	; 0x9ec <_ZN21MHV_Display_Character13writeString_PEPijPKc+0x8a>
     99c:	f8 01       	movw	r30, r16
     99e:	60 81       	ld	r22, Z
     9a0:	71 81       	ldd	r23, Z+1	; 0x01
     9a2:	77 fd       	sbrc	r23, 7
     9a4:	f1 cf       	rjmp	.-30     	; 0x988 <_ZN21MHV_Display_Character13writeString_PEPijPKc+0x26>
     9a6:	c7 01       	movw	r24, r14
     9a8:	a6 01       	movw	r20, r12
     9aa:	0e 94 4c 03 	call	0x698	; 0x698 <_ZN21MHV_Display_Character9setCursorEjj>
     9ae:	f7 01       	movw	r30, r14
     9b0:	86 85       	ldd	r24, Z+14	; 0x0e
     9b2:	97 85       	ldd	r25, Z+15	; 0x0f
     9b4:	c8 16       	cp	r12, r24
     9b6:	d9 06       	cpc	r13, r25
     9b8:	c8 f4       	brcc	.+50     	; 0x9ec <_ZN21MHV_Display_Character13writeString_PEPijPKc+0x8a>
     9ba:	80 e0       	ldi	r24, 0x00	; 0
     9bc:	fe 01       	movw	r30, r28
     9be:	21 96       	adiw	r28, 0x01	; 1
     9c0:	64 91       	lpm	r22, Z
     9c2:	66 23       	and	r22, r22
     9c4:	a1 f0       	breq	.+40     	; 0x9ee <_ZN21MHV_Display_Character13writeString_PEPijPKc+0x8c>
     9c6:	f8 01       	movw	r30, r16
     9c8:	20 81       	ld	r18, Z
     9ca:	31 81       	ldd	r19, Z+1	; 0x01
     9cc:	f7 01       	movw	r30, r14
     9ce:	40 89       	ldd	r20, Z+16	; 0x10
     9d0:	51 89       	ldd	r21, Z+17	; 0x11
     9d2:	d9 01       	movw	r26, r18
     9d4:	11 96       	adiw	r26, 0x01	; 1
     9d6:	f8 01       	movw	r30, r16
     9d8:	b1 83       	std	Z+1, r27	; 0x01
     9da:	a0 83       	st	Z, r26
     9dc:	24 17       	cp	r18, r20
     9de:	35 07       	cpc	r19, r21
     9e0:	34 f4       	brge	.+12     	; 0x9ee <_ZN21MHV_Display_Character13writeString_PEPijPKc+0x8c>
     9e2:	c7 01       	movw	r24, r14
     9e4:	0e 94 cf 03 	call	0x79e	; 0x79e <_ZN21MHV_Display_Character9writeCharEc>
     9e8:	81 e0       	ldi	r24, 0x01	; 1
     9ea:	e8 cf       	rjmp	.-48     	; 0x9bc <_ZN21MHV_Display_Character13writeString_PEPijPKc+0x5a>
     9ec:	80 e0       	ldi	r24, 0x00	; 0
     9ee:	df 91       	pop	r29
     9f0:	cf 91       	pop	r28
     9f2:	1f 91       	pop	r17
     9f4:	0f 91       	pop	r16
     9f6:	ff 90       	pop	r15
     9f8:	ef 90       	pop	r14
     9fa:	df 90       	pop	r13
     9fc:	cf 90       	pop	r12
     9fe:	bf 90       	pop	r11
     a00:	af 90       	pop	r10
     a02:	08 95       	ret

00000a04 <_ZN21MHV_Display_Character11writeBufferEPijPKcj>:
     a04:	8f 92       	push	r8
     a06:	9f 92       	push	r9
     a08:	af 92       	push	r10
     a0a:	bf 92       	push	r11
     a0c:	cf 92       	push	r12
     a0e:	df 92       	push	r13
     a10:	ef 92       	push	r14
     a12:	ff 92       	push	r15
     a14:	0f 93       	push	r16
     a16:	1f 93       	push	r17
     a18:	cf 93       	push	r28
     a1a:	df 93       	push	r29
     a1c:	6c 01       	movw	r12, r24
     a1e:	7b 01       	movw	r14, r22
     a20:	49 01       	movw	r8, r18
     a22:	58 01       	movw	r10, r16
     a24:	fb 01       	movw	r30, r22
     a26:	c0 81       	ld	r28, Z
     a28:	d1 81       	ldd	r29, Z+1	; 0x01
     a2a:	d7 ff       	sbrs	r29, 7
     a2c:	06 c0       	rjmp	.+12     	; 0xa3a <_ZN21MHV_Display_Character11writeBufferEPijPKcj+0x36>
     a2e:	d0 95       	com	r29
     a30:	c1 95       	neg	r28
     a32:	df 4f       	sbci	r29, 0xFF	; 255
     a34:	11 82       	std	Z+1, r1	; 0x01
     a36:	10 82       	st	Z, r1
     a38:	02 c0       	rjmp	.+4      	; 0xa3e <_ZN21MHV_Display_Character11writeBufferEPijPKcj+0x3a>
     a3a:	c0 e0       	ldi	r28, 0x00	; 0
     a3c:	d0 e0       	ldi	r29, 0x00	; 0
     a3e:	f7 01       	movw	r30, r14
     a40:	60 81       	ld	r22, Z
     a42:	71 81       	ldd	r23, Z+1	; 0x01
     a44:	c6 01       	movw	r24, r12
     a46:	0e 94 4c 03 	call	0x698	; 0x698 <_ZN21MHV_Display_Character9setCursorEjj>
     a4a:	84 01       	movw	r16, r8
     a4c:	0c 0f       	add	r16, r28
     a4e:	1d 1f       	adc	r17, r29
     a50:	80 e0       	ldi	r24, 0x00	; 0
     a52:	ca 15       	cp	r28, r10
     a54:	db 05       	cpc	r29, r11
     a56:	c0 f4       	brcc	.+48     	; 0xa88 <_ZN21MHV_Display_Character11writeBufferEPijPKcj+0x84>
     a58:	f7 01       	movw	r30, r14
     a5a:	20 81       	ld	r18, Z
     a5c:	31 81       	ldd	r19, Z+1	; 0x01
     a5e:	f6 01       	movw	r30, r12
     a60:	40 89       	ldd	r20, Z+16	; 0x10
     a62:	51 89       	ldd	r21, Z+17	; 0x11
     a64:	b9 01       	movw	r22, r18
     a66:	6f 5f       	subi	r22, 0xFF	; 255
     a68:	7f 4f       	sbci	r23, 0xFF	; 255
     a6a:	f7 01       	movw	r30, r14
     a6c:	71 83       	std	Z+1, r23	; 0x01
     a6e:	60 83       	st	Z, r22
     a70:	24 17       	cp	r18, r20
     a72:	35 07       	cpc	r19, r21
     a74:	4c f4       	brge	.+18     	; 0xa88 <_ZN21MHV_Display_Character11writeBufferEPijPKcj+0x84>
     a76:	f8 01       	movw	r30, r16
     a78:	61 91       	ld	r22, Z+
     a7a:	8f 01       	movw	r16, r30
     a7c:	21 96       	adiw	r28, 0x01	; 1
     a7e:	c6 01       	movw	r24, r12
     a80:	0e 94 cf 03 	call	0x79e	; 0x79e <_ZN21MHV_Display_Character9writeCharEc>
     a84:	81 e0       	ldi	r24, 0x01	; 1
     a86:	e5 cf       	rjmp	.-54     	; 0xa52 <_ZN21MHV_Display_Character11writeBufferEPijPKcj+0x4e>
     a88:	df 91       	pop	r29
     a8a:	cf 91       	pop	r28
     a8c:	1f 91       	pop	r17
     a8e:	0f 91       	pop	r16
     a90:	ff 90       	pop	r15
     a92:	ef 90       	pop	r14
     a94:	df 90       	pop	r13
     a96:	cf 90       	pop	r12
     a98:	bf 90       	pop	r11
     a9a:	af 90       	pop	r10
     a9c:	9f 90       	pop	r9
     a9e:	8f 90       	pop	r8
     aa0:	08 95       	ret

00000aa2 <_ZN21MHV_Display_Character11writeStringEPijPKc>:
     aa2:	af 92       	push	r10
     aa4:	bf 92       	push	r11
     aa6:	cf 92       	push	r12
     aa8:	df 92       	push	r13
     aaa:	ef 92       	push	r14
     aac:	ff 92       	push	r15
     aae:	0f 93       	push	r16
     ab0:	1f 93       	push	r17
     ab2:	cf 93       	push	r28
     ab4:	df 93       	push	r29
     ab6:	7c 01       	movw	r14, r24
     ab8:	8b 01       	movw	r16, r22
     aba:	6a 01       	movw	r12, r20
     abc:	a2 2e       	mov	r10, r18
     abe:	e5 01       	movw	r28, r10
     ac0:	5e 01       	movw	r10, r28
     ac2:	b3 2e       	mov	r11, r19
     ac4:	e5 01       	movw	r28, r10
     ac6:	09 c0       	rjmp	.+18     	; 0xada <_ZN21MHV_Display_Character11writeStringEPijPKc+0x38>
     ac8:	6f 5f       	subi	r22, 0xFF	; 255
     aca:	7f 4f       	sbci	r23, 0xFF	; 255
     acc:	f8 01       	movw	r30, r16
     ace:	71 83       	std	Z+1, r23	; 0x01
     ad0:	60 83       	st	Z, r22
     ad2:	21 96       	adiw	r28, 0x01	; 1
     ad4:	88 81       	ld	r24, Y
     ad6:	88 23       	and	r24, r24
     ad8:	41 f1       	breq	.+80     	; 0xb2a <_ZN21MHV_Display_Character11writeStringEPijPKc+0x88>
     ada:	f8 01       	movw	r30, r16
     adc:	60 81       	ld	r22, Z
     ade:	71 81       	ldd	r23, Z+1	; 0x01
     ae0:	77 fd       	sbrc	r23, 7
     ae2:	f2 cf       	rjmp	.-28     	; 0xac8 <_ZN21MHV_Display_Character11writeStringEPijPKc+0x26>
     ae4:	c7 01       	movw	r24, r14
     ae6:	a6 01       	movw	r20, r12
     ae8:	0e 94 4c 03 	call	0x698	; 0x698 <_ZN21MHV_Display_Character9setCursorEjj>
     aec:	f7 01       	movw	r30, r14
     aee:	86 85       	ldd	r24, Z+14	; 0x0e
     af0:	97 85       	ldd	r25, Z+15	; 0x0f
     af2:	c8 16       	cp	r12, r24
     af4:	d9 06       	cpc	r13, r25
     af6:	c8 f4       	brcc	.+50     	; 0xb2a <_ZN21MHV_Display_Character11writeStringEPijPKc+0x88>
     af8:	80 e0       	ldi	r24, 0x00	; 0
     afa:	98 81       	ld	r25, Y
     afc:	99 23       	and	r25, r25
     afe:	b1 f0       	breq	.+44     	; 0xb2c <_ZN21MHV_Display_Character11writeStringEPijPKc+0x8a>
     b00:	f8 01       	movw	r30, r16
     b02:	20 81       	ld	r18, Z
     b04:	31 81       	ldd	r19, Z+1	; 0x01
     b06:	f7 01       	movw	r30, r14
     b08:	40 89       	ldd	r20, Z+16	; 0x10
     b0a:	51 89       	ldd	r21, Z+17	; 0x11
     b0c:	b9 01       	movw	r22, r18
     b0e:	6f 5f       	subi	r22, 0xFF	; 255
     b10:	7f 4f       	sbci	r23, 0xFF	; 255
     b12:	f8 01       	movw	r30, r16
     b14:	71 83       	std	Z+1, r23	; 0x01
     b16:	60 83       	st	Z, r22
     b18:	24 17       	cp	r18, r20
     b1a:	35 07       	cpc	r19, r21
     b1c:	3c f4       	brge	.+14     	; 0xb2c <_ZN21MHV_Display_Character11writeStringEPijPKc+0x8a>
     b1e:	69 91       	ld	r22, Y+
     b20:	c7 01       	movw	r24, r14
     b22:	0e 94 cf 03 	call	0x79e	; 0x79e <_ZN21MHV_Display_Character9writeCharEc>
     b26:	81 e0       	ldi	r24, 0x01	; 1
     b28:	e8 cf       	rjmp	.-48     	; 0xafa <_ZN21MHV_Display_Character11writeStringEPijPKc+0x58>
     b2a:	80 e0       	ldi	r24, 0x00	; 0
     b2c:	df 91       	pop	r29
     b2e:	cf 91       	pop	r28
     b30:	1f 91       	pop	r17
     b32:	0f 91       	pop	r16
     b34:	ff 90       	pop	r15
     b36:	ef 90       	pop	r14
     b38:	df 90       	pop	r13
     b3a:	cf 90       	pop	r12
     b3c:	bf 90       	pop	r11
     b3e:	af 90       	pop	r10
     b40:	08 95       	ret

00000b42 <_ZN21MHV_Display_Character11txAnimationEj>:
     b42:	ef 92       	push	r14
     b44:	ff 92       	push	r15
     b46:	0f 93       	push	r16
     b48:	1f 93       	push	r17
     b4a:	df 93       	push	r29
     b4c:	cf 93       	push	r28
     b4e:	00 d0       	rcall	.+0      	; 0xb50 <_ZN21MHV_Display_Character11txAnimationEj+0xe>
     b50:	cd b7       	in	r28, 0x3d	; 61
     b52:	de b7       	in	r29, 0x3e	; 62
     b54:	7c 01       	movw	r14, r24
     b56:	8b 01       	movw	r16, r22
     b58:	dc 01       	movw	r26, r24
     b5a:	1c 96       	adiw	r26, 0x0c	; 12
     b5c:	8d 91       	ld	r24, X+
     b5e:	9c 91       	ld	r25, X
     b60:	1d 97       	sbiw	r26, 0x0d	; 13
     b62:	00 97       	sbiw	r24, 0x00	; 0
     b64:	09 f4       	brne	.+2      	; 0xb68 <_ZN21MHV_Display_Character11txAnimationEj+0x26>
     b66:	61 c0       	rjmp	.+194    	; 0xc2a <_ZN21MHV_Display_Character11txAnimationEj+0xe8>
     b68:	52 96       	adiw	r26, 0x12	; 18
     b6a:	8d 91       	ld	r24, X+
     b6c:	9c 91       	ld	r25, X
     b6e:	53 97       	sbiw	r26, 0x13	; 19
     b70:	9a 83       	std	Y+2, r25	; 0x02
     b72:	89 83       	std	Y+1, r24	; 0x01
     b74:	01 97       	sbiw	r24, 0x01	; 1
     b76:	53 96       	adiw	r26, 0x13	; 19
     b78:	9c 93       	st	X, r25
     b7a:	8e 93       	st	-X, r24
     b7c:	52 97       	sbiw	r26, 0x12	; 18
     b7e:	c7 01       	movw	r24, r14
     b80:	60 e0       	ldi	r22, 0x00	; 0
     b82:	70 e0       	ldi	r23, 0x00	; 0
     b84:	a8 01       	movw	r20, r16
     b86:	0e 94 4c 03 	call	0x698	; 0x698 <_ZN21MHV_Display_Character9setCursorEjj>
     b8a:	f7 01       	movw	r30, r14
     b8c:	90 85       	ldd	r25, Z+8	; 0x08
     b8e:	81 85       	ldd	r24, Z+9	; 0x09
     b90:	99 23       	and	r25, r25
     b92:	b9 f0       	breq	.+46     	; 0xbc2 <_ZN21MHV_Display_Character11txAnimationEj+0x80>
     b94:	24 85       	ldd	r18, Z+12	; 0x0c
     b96:	35 85       	ldd	r19, Z+13	; 0x0d
     b98:	be 01       	movw	r22, r28
     b9a:	6f 5f       	subi	r22, 0xFF	; 255
     b9c:	7f 4f       	sbci	r23, 0xFF	; 255
     b9e:	88 23       	and	r24, r24
     ba0:	29 f0       	breq	.+10     	; 0xbac <_ZN21MHV_Display_Character11txAnimationEj+0x6a>
     ba2:	c7 01       	movw	r24, r14
     ba4:	a8 01       	movw	r20, r16
     ba6:	0e 94 b1 04 	call	0x962	; 0x962 <_ZN21MHV_Display_Character13writeString_PEPijPKc>
     baa:	22 c0       	rjmp	.+68     	; 0xbf0 <_ZN21MHV_Display_Character11txAnimationEj+0xae>
     bac:	d7 01       	movw	r26, r14
     bae:	14 96       	adiw	r26, 0x04	; 4
     bb0:	ed 91       	ld	r30, X+
     bb2:	fc 91       	ld	r31, X
     bb4:	15 97       	sbiw	r26, 0x05	; 5
     bb6:	c7 01       	movw	r24, r14
     bb8:	a8 01       	movw	r20, r16
     bba:	8f 01       	movw	r16, r30
     bbc:	0e 94 6b 04 	call	0x8d6	; 0x8d6 <_ZN21MHV_Display_Character13writeBuffer_PEPijPKcj>
     bc0:	17 c0       	rjmp	.+46     	; 0xbf0 <_ZN21MHV_Display_Character11txAnimationEj+0xae>
     bc2:	f7 01       	movw	r30, r14
     bc4:	24 85       	ldd	r18, Z+12	; 0x0c
     bc6:	35 85       	ldd	r19, Z+13	; 0x0d
     bc8:	be 01       	movw	r22, r28
     bca:	6f 5f       	subi	r22, 0xFF	; 255
     bcc:	7f 4f       	sbci	r23, 0xFF	; 255
     bce:	88 23       	and	r24, r24
     bd0:	29 f0       	breq	.+10     	; 0xbdc <_ZN21MHV_Display_Character11txAnimationEj+0x9a>
     bd2:	c7 01       	movw	r24, r14
     bd4:	a8 01       	movw	r20, r16
     bd6:	0e 94 51 05 	call	0xaa2	; 0xaa2 <_ZN21MHV_Display_Character11writeStringEPijPKc>
     bda:	0a c0       	rjmp	.+20     	; 0xbf0 <_ZN21MHV_Display_Character11txAnimationEj+0xae>
     bdc:	d7 01       	movw	r26, r14
     bde:	14 96       	adiw	r26, 0x04	; 4
     be0:	ed 91       	ld	r30, X+
     be2:	fc 91       	ld	r31, X
     be4:	15 97       	sbiw	r26, 0x05	; 5
     be6:	c7 01       	movw	r24, r14
     be8:	a8 01       	movw	r20, r16
     bea:	8f 01       	movw	r16, r30
     bec:	0e 94 02 05 	call	0xa04	; 0xa04 <_ZN21MHV_Display_Character11writeBufferEPijPKcj>
     bf0:	08 2f       	mov	r16, r24
     bf2:	04 c0       	rjmp	.+8      	; 0xbfc <_ZN21MHV_Display_Character11txAnimationEj+0xba>
     bf4:	c7 01       	movw	r24, r14
     bf6:	60 e2       	ldi	r22, 0x20	; 32
     bf8:	0e 94 cf 03 	call	0x79e	; 0x79e <_ZN21MHV_Display_Character9writeCharEc>
     bfc:	49 81       	ldd	r20, Y+1	; 0x01
     bfe:	5a 81       	ldd	r21, Y+2	; 0x02
     c00:	f7 01       	movw	r30, r14
     c02:	20 89       	ldd	r18, Z+16	; 0x10
     c04:	31 89       	ldd	r19, Z+17	; 0x11
     c06:	ba 01       	movw	r22, r20
     c08:	6f 5f       	subi	r22, 0xFF	; 255
     c0a:	7f 4f       	sbci	r23, 0xFF	; 255
     c0c:	7a 83       	std	Y+2, r23	; 0x02
     c0e:	69 83       	std	Y+1, r22	; 0x01
     c10:	42 17       	cp	r20, r18
     c12:	53 07       	cpc	r21, r19
     c14:	7c f3       	brlt	.-34     	; 0xbf4 <_ZN21MHV_Display_Character11txAnimationEj+0xb2>
     c16:	00 23       	and	r16, r16
     c18:	51 f4       	brne	.+20     	; 0xc2e <_ZN21MHV_Display_Character11txAnimationEj+0xec>
     c1a:	21 50       	subi	r18, 0x01	; 1
     c1c:	30 40       	sbci	r19, 0x00	; 0
     c1e:	33 8b       	std	Z+19, r19	; 0x13
     c20:	22 8b       	std	Z+18, r18	; 0x12
     c22:	c7 01       	movw	r24, r14
     c24:	0e 94 cb 01 	call	0x396	; 0x396 <_ZN13MHV_Device_TX6moreTXEv>
     c28:	03 c0       	rjmp	.+6      	; 0xc30 <_ZN21MHV_Display_Character11txAnimationEj+0xee>
     c2a:	80 e0       	ldi	r24, 0x00	; 0
     c2c:	01 c0       	rjmp	.+2      	; 0xc30 <_ZN21MHV_Display_Character11txAnimationEj+0xee>
     c2e:	81 e0       	ldi	r24, 0x01	; 1
     c30:	0f 90       	pop	r0
     c32:	0f 90       	pop	r0
     c34:	cf 91       	pop	r28
     c36:	df 91       	pop	r29
     c38:	1f 91       	pop	r17
     c3a:	0f 91       	pop	r16
     c3c:	ff 90       	pop	r15
     c3e:	ef 90       	pop	r14
     c40:	08 95       	ret

00000c42 <_ZN19MHV_Display_HD4478010_writeCharEc>:
     c42:	0f 93       	push	r16
     c44:	1f 93       	push	r17
     c46:	df 93       	push	r29
     c48:	cf 93       	push	r28
     c4a:	0f 92       	push	r0
     c4c:	cd b7       	in	r28, 0x3d	; 61
     c4e:	de b7       	in	r29, 0x3e	; 62
     c50:	8c 01       	movw	r16, r24
     c52:	d8 01       	movw	r26, r16
     c54:	ed 91       	ld	r30, X+
     c56:	fc 91       	ld	r31, X
     c58:	06 84       	ldd	r0, Z+14	; 0x0e
     c5a:	f7 85       	ldd	r31, Z+15	; 0x0f
     c5c:	e0 2d       	mov	r30, r0
     c5e:	c8 01       	movw	r24, r16
     c60:	69 83       	std	Y+1, r22	; 0x01
     c62:	09 95       	icall
     c64:	69 81       	ldd	r22, Y+1	; 0x01
     c66:	88 23       	and	r24, r24
     c68:	a1 f7       	brne	.-24     	; 0xc52 <_ZN19MHV_Display_HD4478010_writeCharEc+0x10>
     c6a:	d8 01       	movw	r26, r16
     c6c:	ed 91       	ld	r30, X+
     c6e:	fc 91       	ld	r31, X
     c70:	02 84       	ldd	r0, Z+10	; 0x0a
     c72:	f3 85       	ldd	r31, Z+11	; 0x0b
     c74:	e0 2d       	mov	r30, r0
     c76:	c8 01       	movw	r24, r16
     c78:	41 e0       	ldi	r20, 0x01	; 1
     c7a:	09 95       	icall
     c7c:	0f 90       	pop	r0
     c7e:	cf 91       	pop	r28
     c80:	df 91       	pop	r29
     c82:	1f 91       	pop	r17
     c84:	0f 91       	pop	r16
     c86:	08 95       	ret

00000c88 <_ZN19MHV_Display_HD447809_readCharEv>:
     c88:	cf 93       	push	r28
     c8a:	df 93       	push	r29
     c8c:	ec 01       	movw	r28, r24
     c8e:	e8 81       	ld	r30, Y
     c90:	f9 81       	ldd	r31, Y+1	; 0x01
     c92:	06 84       	ldd	r0, Z+14	; 0x0e
     c94:	f7 85       	ldd	r31, Z+15	; 0x0f
     c96:	e0 2d       	mov	r30, r0
     c98:	ce 01       	movw	r24, r28
     c9a:	09 95       	icall
     c9c:	88 23       	and	r24, r24
     c9e:	b9 f7       	brne	.-18     	; 0xc8e <_ZN19MHV_Display_HD447809_readCharEv+0x6>
     ca0:	e8 81       	ld	r30, Y
     ca2:	f9 81       	ldd	r31, Y+1	; 0x01
     ca4:	04 84       	ldd	r0, Z+12	; 0x0c
     ca6:	f5 85       	ldd	r31, Z+13	; 0x0d
     ca8:	e0 2d       	mov	r30, r0
     caa:	ce 01       	movw	r24, r28
     cac:	61 e0       	ldi	r22, 0x01	; 1
     cae:	09 95       	icall
     cb0:	df 91       	pop	r29
     cb2:	cf 91       	pop	r28
     cb4:	08 95       	ret

00000cb6 <_ZN19MHV_Display_HD44780C1EhjP14MHV_RingBuffer>:
     cb6:	cf 93       	push	r28
     cb8:	df 93       	push	r29
     cba:	ec 01       	movw	r28, r24
     cbc:	70 e0       	ldi	r23, 0x00	; 0
     cbe:	0e 94 2a 03 	call	0x654	; 0x654 <_ZN21MHV_Display_CharacterC1EjjP14MHV_RingBuffer>
     cc2:	81 e7       	ldi	r24, 0x71	; 113
     cc4:	91 e0       	ldi	r25, 0x01	; 1
     cc6:	99 83       	std	Y+1, r25	; 0x01
     cc8:	88 83       	st	Y, r24
     cca:	1b 8e       	std	Y+27, r1	; 0x1b
     ccc:	1a 8e       	std	Y+26, r1	; 0x1a
     cce:	80 e4       	ldi	r24, 0x40	; 64
     cd0:	90 e0       	ldi	r25, 0x00	; 0
     cd2:	9d 8f       	std	Y+29, r25	; 0x1d
     cd4:	8c 8f       	std	Y+28, r24	; 0x1c
     cd6:	1e 8e       	std	Y+30, r1	; 0x1e
     cd8:	df 91       	pop	r29
     cda:	cf 91       	pop	r28
     cdc:	08 95       	ret

00000cde <_ZN19MHV_Display_HD4478012writeCommandE19mhv_hd44780_commandh>:
     cde:	46 2b       	or	r20, r22
     ce0:	dc 01       	movw	r26, r24
     ce2:	5e 96       	adiw	r26, 0x1e	; 30
     ce4:	2c 91       	ld	r18, X
     ce6:	5e 97       	sbiw	r26, 0x1e	; 30
     ce8:	22 23       	and	r18, r18
     cea:	31 f0       	breq	.+12     	; 0xcf8 <_ZN19MHV_Display_HD4478012writeCommandE19mhv_hd44780_commandh+0x1a>
     cec:	be e7       	ldi	r27, 0x7E	; 126
     cee:	ba 95       	dec	r27
     cf0:	f1 f7       	brne	.-4      	; 0xcee <_ZN19MHV_Display_HD4478012writeCommandE19mhv_hd44780_commandh+0x10>
     cf2:	00 c0       	rjmp	.+0      	; 0xcf4 <_ZN19MHV_Display_HD4478012writeCommandE19mhv_hd44780_commandh+0x16>
     cf4:	fc 01       	movw	r30, r24
     cf6:	16 8e       	std	Z+30, r1	; 0x1e
     cf8:	dc 01       	movw	r26, r24
     cfa:	ed 91       	ld	r30, X+
     cfc:	fc 91       	ld	r31, X
     cfe:	02 84       	ldd	r0, Z+10	; 0x0a
     d00:	f3 85       	ldd	r31, Z+11	; 0x0b
     d02:	e0 2d       	mov	r30, r0
     d04:	64 2f       	mov	r22, r20
     d06:	40 e0       	ldi	r20, 0x00	; 0
     d08:	09 95       	icall
     d0a:	08 95       	ret

00000d0c <_ZN19MHV_Display_HD447805clearEv>:
     d0c:	cf 93       	push	r28
     d0e:	df 93       	push	r29
     d10:	ec 01       	movw	r28, r24
     d12:	e8 81       	ld	r30, Y
     d14:	f9 81       	ldd	r31, Y+1	; 0x01
     d16:	06 84       	ldd	r0, Z+14	; 0x0e
     d18:	f7 85       	ldd	r31, Z+15	; 0x0f
     d1a:	e0 2d       	mov	r30, r0
     d1c:	ce 01       	movw	r24, r28
     d1e:	09 95       	icall
     d20:	88 23       	and	r24, r24
     d22:	b9 f7       	brne	.-18     	; 0xd12 <_ZN19MHV_Display_HD447805clearEv+0x6>
     d24:	ce 01       	movw	r24, r28
     d26:	61 e0       	ldi	r22, 0x01	; 1
     d28:	40 e0       	ldi	r20, 0x00	; 0
     d2a:	0e 94 6f 06 	call	0xcde	; 0xcde <_ZN19MHV_Display_HD4478012writeCommandE19mhv_hd44780_commandh>
     d2e:	8e 85       	ldd	r24, Y+14	; 0x0e
     d30:	9f 85       	ldd	r25, Y+15	; 0x0f
     d32:	01 97       	sbiw	r24, 0x01	; 1
     d34:	9d 8b       	std	Y+21, r25	; 0x15
     d36:	8c 8b       	std	Y+20, r24	; 0x14
     d38:	1f 8a       	std	Y+23, r1	; 0x17
     d3a:	1e 8a       	std	Y+22, r1	; 0x16
     d3c:	df 91       	pop	r29
     d3e:	cf 91       	pop	r28
     d40:	08 95       	ret

00000d42 <_ZN19MHV_Display_HD447809entryModeEbb>:
     d42:	1f 93       	push	r17
     d44:	cf 93       	push	r28
     d46:	df 93       	push	r29
     d48:	ec 01       	movw	r28, r24
     d4a:	16 2f       	mov	r17, r22
     d4c:	11 0f       	add	r17, r17
     d4e:	14 2b       	or	r17, r20
     d50:	e8 81       	ld	r30, Y
     d52:	f9 81       	ldd	r31, Y+1	; 0x01
     d54:	06 84       	ldd	r0, Z+14	; 0x0e
     d56:	f7 85       	ldd	r31, Z+15	; 0x0f
     d58:	e0 2d       	mov	r30, r0
     d5a:	ce 01       	movw	r24, r28
     d5c:	09 95       	icall
     d5e:	88 23       	and	r24, r24
     d60:	b9 f7       	brne	.-18     	; 0xd50 <_ZN19MHV_Display_HD447809entryModeEbb+0xe>
     d62:	ce 01       	movw	r24, r28
     d64:	64 e0       	ldi	r22, 0x04	; 4
     d66:	41 2f       	mov	r20, r17
     d68:	0e 94 6f 06 	call	0xcde	; 0xcde <_ZN19MHV_Display_HD4478012writeCommandE19mhv_hd44780_commandh>
     d6c:	df 91       	pop	r29
     d6e:	cf 91       	pop	r28
     d70:	1f 91       	pop	r17
     d72:	08 95       	ret

00000d74 <_ZN19MHV_Display_HD447807controlEbbb>:
     d74:	0f 93       	push	r16
     d76:	1f 93       	push	r17
     d78:	df 93       	push	r29
     d7a:	cf 93       	push	r28
     d7c:	0f 92       	push	r0
     d7e:	cd b7       	in	r28, 0x3d	; 61
     d80:	de b7       	in	r29, 0x3e	; 62
     d82:	8c 01       	movw	r16, r24
     d84:	66 0f       	add	r22, r22
     d86:	66 0f       	add	r22, r22
     d88:	62 2b       	or	r22, r18
     d8a:	44 0f       	add	r20, r20
     d8c:	46 2b       	or	r20, r22
     d8e:	d8 01       	movw	r26, r16
     d90:	ed 91       	ld	r30, X+
     d92:	fc 91       	ld	r31, X
     d94:	06 84       	ldd	r0, Z+14	; 0x0e
     d96:	f7 85       	ldd	r31, Z+15	; 0x0f
     d98:	e0 2d       	mov	r30, r0
     d9a:	c8 01       	movw	r24, r16
     d9c:	49 83       	std	Y+1, r20	; 0x01
     d9e:	09 95       	icall
     da0:	49 81       	ldd	r20, Y+1	; 0x01
     da2:	88 23       	and	r24, r24
     da4:	a1 f7       	brne	.-24     	; 0xd8e <_ZN19MHV_Display_HD447807controlEbbb+0x1a>
     da6:	c8 01       	movw	r24, r16
     da8:	68 e0       	ldi	r22, 0x08	; 8
     daa:	0e 94 6f 06 	call	0xcde	; 0xcde <_ZN19MHV_Display_HD4478012writeCommandE19mhv_hd44780_commandh>
     dae:	0f 90       	pop	r0
     db0:	cf 91       	pop	r28
     db2:	df 91       	pop	r29
     db4:	1f 91       	pop	r17
     db6:	0f 91       	pop	r16
     db8:	08 95       	ret

00000dba <_ZN19MHV_Display_HD447808functionEbbb>:
     dba:	0f 93       	push	r16
     dbc:	1f 93       	push	r17
     dbe:	df 93       	push	r29
     dc0:	cf 93       	push	r28
     dc2:	0f 92       	push	r0
     dc4:	cd b7       	in	r28, 0x3d	; 61
     dc6:	de b7       	in	r29, 0x3e	; 62
     dc8:	8c 01       	movw	r16, r24
     dca:	44 0f       	add	r20, r20
     dcc:	44 0f       	add	r20, r20
     dce:	44 0f       	add	r20, r20
     dd0:	86 2f       	mov	r24, r22
     dd2:	88 0f       	add	r24, r24
     dd4:	84 2b       	or	r24, r20
     dd6:	22 0f       	add	r18, r18
     dd8:	22 0f       	add	r18, r18
     dda:	28 2b       	or	r18, r24
     ddc:	66 23       	and	r22, r22
     dde:	91 f4       	brne	.+36     	; 0xe04 <_ZN19MHV_Display_HD447808functionEbbb+0x4a>
     de0:	d8 01       	movw	r26, r16
     de2:	ed 91       	ld	r30, X+
     de4:	fc 91       	ld	r31, X
     de6:	02 84       	ldd	r0, Z+10	; 0x0a
     de8:	f3 85       	ldd	r31, Z+11	; 0x0b
     dea:	e0 2d       	mov	r30, r0
     dec:	c8 01       	movw	r24, r16
     dee:	62 e2       	ldi	r22, 0x22	; 34
     df0:	40 e0       	ldi	r20, 0x00	; 0
     df2:	29 83       	std	Y+1, r18	; 0x01
     df4:	09 95       	icall
     df6:	e3 e1       	ldi	r30, 0x13	; 19
     df8:	f0 e5       	ldi	r31, 0x50	; 80
     dfa:	31 97       	sbiw	r30, 0x01	; 1
     dfc:	f1 f7       	brne	.-4      	; 0xdfa <_ZN19MHV_Display_HD447808functionEbbb+0x40>
     dfe:	00 c0       	rjmp	.+0      	; 0xe00 <_ZN19MHV_Display_HD447808functionEbbb+0x46>
     e00:	00 00       	nop
     e02:	29 81       	ldd	r18, Y+1	; 0x01
     e04:	c8 01       	movw	r24, r16
     e06:	60 e2       	ldi	r22, 0x20	; 32
     e08:	42 2f       	mov	r20, r18
     e0a:	0e 94 6f 06 	call	0xcde	; 0xcde <_ZN19MHV_Display_HD4478012writeCommandE19mhv_hd44780_commandh>
     e0e:	0f 90       	pop	r0
     e10:	cf 91       	pop	r28
     e12:	df 91       	pop	r29
     e14:	1f 91       	pop	r17
     e16:	0f 91       	pop	r16
     e18:	08 95       	ret

00000e1a <_ZN19MHV_Display_HD4478012addressDDRAMEh>:
     e1a:	0f 93       	push	r16
     e1c:	1f 93       	push	r17
     e1e:	df 93       	push	r29
     e20:	cf 93       	push	r28
     e22:	0f 92       	push	r0
     e24:	cd b7       	in	r28, 0x3d	; 61
     e26:	de b7       	in	r29, 0x3e	; 62
     e28:	8c 01       	movw	r16, r24
     e2a:	46 2f       	mov	r20, r22
     e2c:	d8 01       	movw	r26, r16
     e2e:	ed 91       	ld	r30, X+
     e30:	fc 91       	ld	r31, X
     e32:	06 84       	ldd	r0, Z+14	; 0x0e
     e34:	f7 85       	ldd	r31, Z+15	; 0x0f
     e36:	e0 2d       	mov	r30, r0
     e38:	c8 01       	movw	r24, r16
     e3a:	49 83       	std	Y+1, r20	; 0x01
     e3c:	09 95       	icall
     e3e:	49 81       	ldd	r20, Y+1	; 0x01
     e40:	88 23       	and	r24, r24
     e42:	a1 f7       	brne	.-24     	; 0xe2c <_ZN19MHV_Display_HD4478012addressDDRAMEh+0x12>
     e44:	c8 01       	movw	r24, r16
     e46:	60 e8       	ldi	r22, 0x80	; 128
     e48:	0e 94 6f 06 	call	0xcde	; 0xcde <_ZN19MHV_Display_HD4478012writeCommandE19mhv_hd44780_commandh>
     e4c:	0f 90       	pop	r0
     e4e:	cf 91       	pop	r28
     e50:	df 91       	pop	r29
     e52:	1f 91       	pop	r17
     e54:	0f 91       	pop	r16
     e56:	08 95       	ret

00000e58 <_ZN19MHV_Display_HD4478010_setCursorEhh>:
     e58:	0f 93       	push	r16
     e5a:	1f 93       	push	r17
     e5c:	df 93       	push	r29
     e5e:	cf 93       	push	r28
     e60:	0f 92       	push	r0
     e62:	cd b7       	in	r28, 0x3d	; 61
     e64:	de b7       	in	r29, 0x3e	; 62
     e66:	8c 01       	movw	r16, r24
     e68:	dc 01       	movw	r26, r24
     e6a:	1e 96       	adiw	r26, 0x0e	; 14
     e6c:	8d 91       	ld	r24, X+
     e6e:	9c 91       	ld	r25, X
     e70:	1f 97       	sbiw	r26, 0x0f	; 15
     e72:	84 30       	cpi	r24, 0x04	; 4
     e74:	91 05       	cpc	r25, r1
     e76:	69 f4       	brne	.+26     	; 0xe92 <_ZN19MHV_Display_HD4478010_setCursorEhh+0x3a>
     e78:	50 96       	adiw	r26, 0x10	; 16
     e7a:	8d 91       	ld	r24, X+
     e7c:	9c 91       	ld	r25, X
     e7e:	51 97       	sbiw	r26, 0x11	; 17
     e80:	84 31       	cpi	r24, 0x14	; 20
     e82:	91 05       	cpc	r25, r1
     e84:	31 f4       	brne	.+12     	; 0xe92 <_ZN19MHV_Display_HD4478010_setCursorEhh+0x3a>
     e86:	e4 2f       	mov	r30, r20
     e88:	f0 e0       	ldi	r31, 0x00	; 0
     e8a:	e2 52       	subi	r30, 0x22	; 34
     e8c:	ff 4f       	sbci	r31, 0xFF	; 255
     e8e:	e4 91       	lpm	r30, Z
     e90:	05 c0       	rjmp	.+10     	; 0xe9c <_ZN19MHV_Display_HD4478010_setCursorEhh+0x44>
     e92:	e4 2f       	mov	r30, r20
     e94:	f0 e0       	ldi	r31, 0x00	; 0
     e96:	e0 52       	subi	r30, 0x20	; 32
     e98:	ff 4f       	sbci	r31, 0xFF	; 255
     e9a:	e4 91       	lpm	r30, Z
     e9c:	6e 0f       	add	r22, r30
     e9e:	f8 01       	movw	r30, r16
     ea0:	a0 81       	ld	r26, Z
     ea2:	b1 81       	ldd	r27, Z+1	; 0x01
     ea4:	1e 96       	adiw	r26, 0x0e	; 14
     ea6:	ed 91       	ld	r30, X+
     ea8:	fc 91       	ld	r31, X
     eaa:	1f 97       	sbiw	r26, 0x0f	; 15
     eac:	c8 01       	movw	r24, r16
     eae:	69 83       	std	Y+1, r22	; 0x01
     eb0:	09 95       	icall
     eb2:	69 81       	ldd	r22, Y+1	; 0x01
     eb4:	88 23       	and	r24, r24
     eb6:	99 f7       	brne	.-26     	; 0xe9e <_ZN19MHV_Display_HD4478010_setCursorEhh+0x46>
     eb8:	c8 01       	movw	r24, r16
     eba:	0e 94 0d 07 	call	0xe1a	; 0xe1a <_ZN19MHV_Display_HD4478012addressDDRAMEh>
     ebe:	0f 90       	pop	r0
     ec0:	cf 91       	pop	r28
     ec2:	df 91       	pop	r29
     ec4:	1f 91       	pop	r17
     ec6:	0f 91       	pop	r16
     ec8:	08 95       	ret

00000eca <_ZN19MHV_Display_HD4478010_setCursorEjj>:
     eca:	0e 94 2c 07 	call	0xe58	; 0xe58 <_ZN19MHV_Display_HD4478010_setCursorEhh>
     ece:	08 95       	ret

00000ed0 <_ZN19MHV_Display_HD447804initEbbbbbbb>:
     ed0:	af 92       	push	r10
     ed2:	cf 92       	push	r12
     ed4:	ef 92       	push	r14
     ed6:	0f 93       	push	r16
     ed8:	cf 93       	push	r28
     eda:	df 93       	push	r29
     edc:	ec 01       	movw	r28, r24
     ede:	6f 8f       	std	Y+31, r22	; 0x1f
     ee0:	8f e7       	ldi	r24, 0x7F	; 127
     ee2:	9f e4       	ldi	r25, 0x4F	; 79
     ee4:	a2 e1       	ldi	r26, 0x12	; 18
     ee6:	81 50       	subi	r24, 0x01	; 1
     ee8:	90 40       	sbci	r25, 0x00	; 0
     eea:	a0 40       	sbci	r26, 0x00	; 0
     eec:	e1 f7       	brne	.-8      	; 0xee6 <_ZN19MHV_Display_HD447804initEbbbbbbb+0x16>
     eee:	00 c0       	rjmp	.+0      	; 0xef0 <_ZN19MHV_Display_HD447804initEbbbbbbb+0x20>
     ef0:	00 00       	nop
     ef2:	ce 01       	movw	r24, r28
     ef4:	0e 94 dd 06 	call	0xdba	; 0xdba <_ZN19MHV_Display_HD447808functionEbbb>
     ef8:	a2 ec       	ldi	r26, 0xC2	; 194
     efa:	b0 e0       	ldi	r27, 0x00	; 0
     efc:	11 97       	sbiw	r26, 0x01	; 1
     efe:	f1 f7       	brne	.-4      	; 0xefc <_ZN19MHV_Display_HD447804initEbbbbbbb+0x2c>
     f00:	00 c0       	rjmp	.+0      	; 0xf02 <_ZN19MHV_Display_HD447804initEbbbbbbb+0x32>
     f02:	00 00       	nop
     f04:	ce 01       	movw	r24, r28
     f06:	61 e0       	ldi	r22, 0x01	; 1
     f08:	40 2f       	mov	r20, r16
     f0a:	2e 2d       	mov	r18, r14
     f0c:	0e 94 ba 06 	call	0xd74	; 0xd74 <_ZN19MHV_Display_HD447807controlEbbb>
     f10:	e8 81       	ld	r30, Y
     f12:	f9 81       	ldd	r31, Y+1	; 0x01
     f14:	00 84       	ldd	r0, Z+8	; 0x08
     f16:	f1 85       	ldd	r31, Z+9	; 0x09
     f18:	e0 2d       	mov	r30, r0
     f1a:	ce 01       	movw	r24, r28
     f1c:	09 95       	icall
     f1e:	ce 01       	movw	r24, r28
     f20:	6c 2d       	mov	r22, r12
     f22:	4a 2d       	mov	r20, r10
     f24:	0e 94 a1 06 	call	0xd42	; 0xd42 <_ZN19MHV_Display_HD447809entryModeEbb>
     f28:	8e 85       	ldd	r24, Y+14	; 0x0e
     f2a:	9f 85       	ldd	r25, Y+15	; 0x0f
     f2c:	01 97       	sbiw	r24, 0x01	; 1
     f2e:	9d 8b       	std	Y+21, r25	; 0x15
     f30:	8c 8b       	std	Y+20, r24	; 0x14
     f32:	1f 8a       	std	Y+23, r1	; 0x17
     f34:	1e 8a       	std	Y+22, r1	; 0x16
     f36:	df 91       	pop	r29
     f38:	cf 91       	pop	r28
     f3a:	0f 91       	pop	r16
     f3c:	ef 90       	pop	r14
     f3e:	cf 90       	pop	r12
     f40:	af 90       	pop	r10
     f42:	08 95       	ret

00000f44 <_ZN34MHV_Display_HD44780_Direct_Connect6isBusyEv>:
     f44:	1f 93       	push	r17
     f46:	cf 93       	push	r28
     f48:	df 93       	push	r29
     f4a:	fc 01       	movw	r30, r24
     f4c:	a0 a1       	ldd	r26, Z+32	; 0x20
     f4e:	b1 a1       	ldd	r27, Z+33	; 0x21
     f50:	4c 91       	ld	r20, X
     f52:	86 a1       	ldd	r24, Z+38	; 0x26
     f54:	90 e0       	ldi	r25, 0x00	; 0
     f56:	03 96       	adiw	r24, 0x03	; 3
     f58:	21 e0       	ldi	r18, 0x01	; 1
     f5a:	30 e0       	ldi	r19, 0x00	; 0
     f5c:	b9 01       	movw	r22, r18
     f5e:	02 c0       	rjmp	.+4      	; 0xf64 <_ZN34MHV_Display_HD44780_Direct_Connect6isBusyEv+0x20>
     f60:	66 0f       	add	r22, r22
     f62:	77 1f       	adc	r23, r23
     f64:	8a 95       	dec	r24
     f66:	e2 f7       	brpl	.-8      	; 0xf60 <_ZN34MHV_Display_HD44780_Direct_Connect6isBusyEv+0x1c>
     f68:	cb 01       	movw	r24, r22
     f6a:	80 95       	com	r24
     f6c:	84 23       	and	r24, r20
     f6e:	8c 93       	st	X, r24
     f70:	a2 a1       	ldd	r26, Z+34	; 0x22
     f72:	b3 a1       	ldd	r27, Z+35	; 0x23
     f74:	4c 91       	ld	r20, X
     f76:	86 a1       	ldd	r24, Z+38	; 0x26
     f78:	90 e0       	ldi	r25, 0x00	; 0
     f7a:	03 96       	adiw	r24, 0x03	; 3
     f7c:	e9 01       	movw	r28, r18
     f7e:	02 c0       	rjmp	.+4      	; 0xf84 <_ZN34MHV_Display_HD44780_Direct_Connect6isBusyEv+0x40>
     f80:	cc 0f       	add	r28, r28
     f82:	dd 1f       	adc	r29, r29
     f84:	8a 95       	dec	r24
     f86:	e2 f7       	brpl	.-8      	; 0xf80 <_ZN34MHV_Display_HD44780_Direct_Connect6isBusyEv+0x3c>
     f88:	ce 01       	movw	r24, r28
     f8a:	80 95       	com	r24
     f8c:	84 23       	and	r24, r20
     f8e:	8c 93       	st	X, r24
     f90:	a0 a5       	ldd	r26, Z+40	; 0x28
     f92:	b1 a5       	ldd	r27, Z+41	; 0x29
     f94:	4c 91       	ld	r20, X
     f96:	82 a5       	ldd	r24, Z+42	; 0x2a
     f98:	90 e0       	ldi	r25, 0x00	; 0
     f9a:	01 96       	adiw	r24, 0x01	; 1
     f9c:	b9 01       	movw	r22, r18
     f9e:	02 c0       	rjmp	.+4      	; 0xfa4 <_ZN34MHV_Display_HD44780_Direct_Connect6isBusyEv+0x60>
     fa0:	66 0f       	add	r22, r22
     fa2:	77 1f       	adc	r23, r23
     fa4:	8a 95       	dec	r24
     fa6:	e2 f7       	brpl	.-8      	; 0xfa0 <_ZN34MHV_Display_HD44780_Direct_Connect6isBusyEv+0x5c>
     fa8:	46 2b       	or	r20, r22
     faa:	4c 93       	st	X, r20
     fac:	82 e0       	ldi	r24, 0x02	; 2
     fae:	8a 95       	dec	r24
     fb0:	f1 f7       	brne	.-4      	; 0xfae <_ZN34MHV_Display_HD44780_Direct_Connect6isBusyEv+0x6a>
     fb2:	a0 a5       	ldd	r26, Z+40	; 0x28
     fb4:	b1 a5       	ldd	r27, Z+41	; 0x29
     fb6:	4c 91       	ld	r20, X
     fb8:	82 a5       	ldd	r24, Z+42	; 0x2a
     fba:	90 e0       	ldi	r25, 0x00	; 0
     fbc:	02 96       	adiw	r24, 0x02	; 2
     fbe:	e9 01       	movw	r28, r18
     fc0:	02 c0       	rjmp	.+4      	; 0xfc6 <_ZN34MHV_Display_HD44780_Direct_Connect6isBusyEv+0x82>
     fc2:	cc 0f       	add	r28, r28
     fc4:	dd 1f       	adc	r29, r29
     fc6:	8a 95       	dec	r24
     fc8:	e2 f7       	brpl	.-8      	; 0xfc2 <_ZN34MHV_Display_HD44780_Direct_Connect6isBusyEv+0x7e>
     fca:	4c 2b       	or	r20, r28
     fcc:	4c 93       	st	X, r20
     fce:	88 e0       	ldi	r24, 0x08	; 8
     fd0:	8a 95       	dec	r24
     fd2:	f1 f7       	brne	.-4      	; 0xfd0 <_ZN34MHV_Display_HD44780_Direct_Connect6isBusyEv+0x8c>
     fd4:	a4 a1       	ldd	r26, Z+36	; 0x24
     fd6:	b5 a1       	ldd	r27, Z+37	; 0x25
     fd8:	8c 91       	ld	r24, X
     fda:	90 e0       	ldi	r25, 0x00	; 0
     fdc:	46 a1       	ldd	r20, Z+38	; 0x26
     fde:	50 e0       	ldi	r21, 0x00	; 0
     fe0:	4d 5f       	subi	r20, 0xFD	; 253
     fe2:	5f 4f       	sbci	r21, 0xFF	; 255
     fe4:	02 c0       	rjmp	.+4      	; 0xfea <_ZN34MHV_Display_HD44780_Direct_Connect6isBusyEv+0xa6>
     fe6:	95 95       	asr	r25
     fe8:	87 95       	ror	r24
     fea:	4a 95       	dec	r20
     fec:	e2 f7       	brpl	.-8      	; 0xfe6 <_ZN34MHV_Display_HD44780_Direct_Connect6isBusyEv+0xa2>
     fee:	a0 a5       	ldd	r26, Z+40	; 0x28
     ff0:	b1 a5       	ldd	r27, Z+41	; 0x29
     ff2:	1c 91       	ld	r17, X
     ff4:	42 a5       	ldd	r20, Z+42	; 0x2a
     ff6:	50 e0       	ldi	r21, 0x00	; 0
     ff8:	ba 01       	movw	r22, r20
     ffa:	6f 5f       	subi	r22, 0xFF	; 255
     ffc:	7f 4f       	sbci	r23, 0xFF	; 255
     ffe:	e9 01       	movw	r28, r18
    1000:	02 c0       	rjmp	.+4      	; 0x1006 <_ZN34MHV_Display_HD44780_Direct_Connect6isBusyEv+0xc2>
    1002:	cc 0f       	add	r28, r28
    1004:	dd 1f       	adc	r29, r29
    1006:	6a 95       	dec	r22
    1008:	e2 f7       	brpl	.-8      	; 0x1002 <_ZN34MHV_Display_HD44780_Direct_Connect6isBusyEv+0xbe>
    100a:	be 01       	movw	r22, r28
    100c:	4e 5f       	subi	r20, 0xFE	; 254
    100e:	5f 4f       	sbci	r21, 0xFF	; 255
    1010:	e9 01       	movw	r28, r18
    1012:	02 c0       	rjmp	.+4      	; 0x1018 <_ZN34MHV_Display_HD44780_Direct_Connect6isBusyEv+0xd4>
    1014:	cc 0f       	add	r28, r28
    1016:	dd 1f       	adc	r29, r29
    1018:	4a 95       	dec	r20
    101a:	e2 f7       	brpl	.-8      	; 0x1014 <_ZN34MHV_Display_HD44780_Direct_Connect6isBusyEv+0xd0>
    101c:	ae 01       	movw	r20, r28
    101e:	46 2b       	or	r20, r22
    1020:	40 95       	com	r20
    1022:	41 23       	and	r20, r17
    1024:	4c 93       	st	X, r20
    1026:	a0 a1       	ldd	r26, Z+32	; 0x20
    1028:	b1 a1       	ldd	r27, Z+33	; 0x21
    102a:	6c 91       	ld	r22, X
    102c:	46 a1       	ldd	r20, Z+38	; 0x26
    102e:	50 e0       	ldi	r21, 0x00	; 0
    1030:	4d 5f       	subi	r20, 0xFD	; 253
    1032:	5f 4f       	sbci	r21, 0xFF	; 255
    1034:	02 c0       	rjmp	.+4      	; 0x103a <_ZN34MHV_Display_HD44780_Direct_Connect6isBusyEv+0xf6>
    1036:	22 0f       	add	r18, r18
    1038:	33 1f       	adc	r19, r19
    103a:	4a 95       	dec	r20
    103c:	e2 f7       	brpl	.-8      	; 0x1036 <_ZN34MHV_Display_HD44780_Direct_Connect6isBusyEv+0xf2>
    103e:	62 2b       	or	r22, r18
    1040:	6c 93       	st	X, r22
    1042:	21 e0       	ldi	r18, 0x01	; 1
    1044:	26 8f       	std	Z+30, r18	; 0x1e
    1046:	81 70       	andi	r24, 0x01	; 1
    1048:	df 91       	pop	r29
    104a:	cf 91       	pop	r28
    104c:	1f 91       	pop	r17
    104e:	08 95       	ret

00001050 <_ZN34MHV_Display_HD44780_Direct_ConnectC1EPVhS1_S1_haS1_S1_S1_haS1_S1_S1_hahjP14MHV_RingBuffer>:
    1050:	2f 92       	push	r2
    1052:	3f 92       	push	r3
    1054:	4f 92       	push	r4
    1056:	5f 92       	push	r5
    1058:	6f 92       	push	r6
    105a:	7f 92       	push	r7
    105c:	8f 92       	push	r8
    105e:	9f 92       	push	r9
    1060:	af 92       	push	r10
    1062:	bf 92       	push	r11
    1064:	cf 92       	push	r12
    1066:	df 92       	push	r13
    1068:	ef 92       	push	r14
    106a:	ff 92       	push	r15
    106c:	0f 93       	push	r16
    106e:	df 93       	push	r29
    1070:	cf 93       	push	r28
    1072:	cd b7       	in	r28, 0x3d	; 61
    1074:	de b7       	in	r29, 0x3e	; 62
    1076:	7c 01       	movw	r14, r24
    1078:	4b 01       	movw	r8, r22
    107a:	2a 01       	movw	r4, r20
    107c:	19 01       	movw	r2, r18
    107e:	6e 88       	ldd	r6, Y+22	; 0x16
    1080:	7f 88       	ldd	r7, Y+23	; 0x17
    1082:	6e 8d       	ldd	r22, Y+30	; 0x1e
    1084:	4f 8d       	ldd	r20, Y+31	; 0x1f
    1086:	58 a1       	ldd	r21, Y+32	; 0x20
    1088:	29 a1       	ldd	r18, Y+33	; 0x21
    108a:	3a a1       	ldd	r19, Y+34	; 0x22
    108c:	0e 94 5b 06 	call	0xcb6	; 0xcb6 <_ZN19MHV_Display_HD44780C1EhjP14MHV_RingBuffer>
    1090:	85 e8       	ldi	r24, 0x85	; 133
    1092:	91 e0       	ldi	r25, 0x01	; 1
    1094:	d7 01       	movw	r26, r14
    1096:	11 96       	adiw	r26, 0x01	; 1
    1098:	9c 93       	st	X, r25
    109a:	8e 93       	st	-X, r24
    109c:	91 96       	adiw	r26, 0x21	; 33
    109e:	9c 92       	st	X, r9
    10a0:	8e 92       	st	-X, r8
    10a2:	90 97       	sbiw	r26, 0x20	; 32
    10a4:	93 96       	adiw	r26, 0x23	; 35
    10a6:	5c 92       	st	X, r5
    10a8:	4e 92       	st	-X, r4
    10aa:	92 97       	sbiw	r26, 0x22	; 34
    10ac:	95 96       	adiw	r26, 0x25	; 37
    10ae:	3c 92       	st	X, r3
    10b0:	2e 92       	st	-X, r2
    10b2:	94 97       	sbiw	r26, 0x24	; 36
    10b4:	96 96       	adiw	r26, 0x26	; 38
    10b6:	0c 93       	st	X, r16
    10b8:	96 97       	sbiw	r26, 0x26	; 38
    10ba:	99 96       	adiw	r26, 0x29	; 41
    10bc:	bc 92       	st	X, r11
    10be:	ae 92       	st	-X, r10
    10c0:	98 97       	sbiw	r26, 0x28	; 40
    10c2:	8c 89       	ldd	r24, Y+20	; 0x14
    10c4:	9a 96       	adiw	r26, 0x2a	; 42
    10c6:	8c 93       	st	X, r24
    10c8:	9a 97       	sbiw	r26, 0x2a	; 42
    10ca:	88 8d       	ldd	r24, Y+24	; 0x18
    10cc:	99 8d       	ldd	r25, Y+25	; 0x19
    10ce:	9c 96       	adiw	r26, 0x2c	; 44
    10d0:	9c 93       	st	X, r25
    10d2:	8e 93       	st	-X, r24
    10d4:	9b 97       	sbiw	r26, 0x2b	; 43
    10d6:	8c 8d       	ldd	r24, Y+28	; 0x1c
    10d8:	9d 96       	adiw	r26, 0x2d	; 45
    10da:	8c 93       	st	X, r24
    10dc:	9d 97       	sbiw	r26, 0x2d	; 45
    10de:	8f e0       	ldi	r24, 0x0F	; 15
    10e0:	90 e0       	ldi	r25, 0x00	; 0
    10e2:	02 c0       	rjmp	.+4      	; 0x10e8 <_ZN34MHV_Display_HD44780_Direct_ConnectC1EPVhS1_S1_haS1_S1_S1_haS1_S1_S1_hahjP14MHV_RingBuffer+0x98>
    10e4:	88 0f       	add	r24, r24
    10e6:	99 1f       	adc	r25, r25
    10e8:	0a 95       	dec	r16
    10ea:	e2 f7       	brpl	.-8      	; 0x10e4 <_ZN34MHV_Display_HD44780_Direct_ConnectC1EPVhS1_S1_haS1_S1_S1_haS1_S1_S1_hahjP14MHV_RingBuffer+0x94>
    10ec:	97 96       	adiw	r26, 0x27	; 39
    10ee:	8c 93       	st	X, r24
    10f0:	97 97       	sbiw	r26, 0x27	; 39
    10f2:	f4 01       	movw	r30, r8
    10f4:	20 81       	ld	r18, Z
    10f6:	28 2b       	or	r18, r24
    10f8:	20 83       	st	Z, r18
    10fa:	92 96       	adiw	r26, 0x22	; 34
    10fc:	ed 91       	ld	r30, X+
    10fe:	fc 91       	ld	r31, X
    1100:	93 97       	sbiw	r26, 0x23	; 35
    1102:	90 81       	ld	r25, Z
    1104:	97 96       	adiw	r26, 0x27	; 39
    1106:	8c 91       	ld	r24, X
    1108:	97 97       	sbiw	r26, 0x27	; 39
    110a:	80 95       	com	r24
    110c:	89 23       	and	r24, r25
    110e:	80 83       	st	Z, r24
    1110:	87 e0       	ldi	r24, 0x07	; 7
    1112:	90 e0       	ldi	r25, 0x00	; 0
    1114:	9a 96       	adiw	r26, 0x2a	; 42
    1116:	0c 90       	ld	r0, X
    1118:	02 c0       	rjmp	.+4      	; 0x111e <_ZN34MHV_Display_HD44780_Direct_ConnectC1EPVhS1_S1_haS1_S1_S1_haS1_S1_S1_hahjP14MHV_RingBuffer+0xce>
    111a:	88 0f       	add	r24, r24
    111c:	99 1f       	adc	r25, r25
    111e:	0a 94       	dec	r0
    1120:	e2 f7       	brpl	.-8      	; 0x111a <_ZN34MHV_Display_HD44780_Direct_ConnectC1EPVhS1_S1_haS1_S1_S1_haS1_S1_S1_hahjP14MHV_RingBuffer+0xca>
    1122:	d6 01       	movw	r26, r12
    1124:	9c 91       	ld	r25, X
    1126:	98 2b       	or	r25, r24
    1128:	9c 93       	st	X, r25
    112a:	d7 01       	movw	r26, r14
    112c:	98 96       	adiw	r26, 0x28	; 40
    112e:	ed 91       	ld	r30, X+
    1130:	fc 91       	ld	r31, X
    1132:	99 97       	sbiw	r26, 0x29	; 41
    1134:	90 81       	ld	r25, Z
    1136:	80 95       	com	r24
    1138:	89 23       	and	r24, r25
    113a:	80 83       	st	Z, r24
    113c:	83 e0       	ldi	r24, 0x03	; 3
    113e:	90 e0       	ldi	r25, 0x00	; 0
    1140:	9d 96       	adiw	r26, 0x2d	; 45
    1142:	0c 90       	ld	r0, X
    1144:	9d 97       	sbiw	r26, 0x2d	; 45
    1146:	02 c0       	rjmp	.+4      	; 0x114c <_ZN34MHV_Display_HD44780_Direct_ConnectC1EPVhS1_S1_haS1_S1_S1_haS1_S1_S1_hahjP14MHV_RingBuffer+0xfc>
    1148:	88 0f       	add	r24, r24
    114a:	99 1f       	adc	r25, r25
    114c:	0a 94       	dec	r0
    114e:	e2 f7       	brpl	.-8      	; 0x1148 <_ZN34MHV_Display_HD44780_Direct_ConnectC1EPVhS1_S1_haS1_S1_S1_haS1_S1_S1_hahjP14MHV_RingBuffer+0xf8>
    1150:	f3 01       	movw	r30, r6
    1152:	90 81       	ld	r25, Z
    1154:	98 2b       	or	r25, r24
    1156:	90 83       	st	Z, r25
    1158:	9b 96       	adiw	r26, 0x2b	; 43
    115a:	ed 91       	ld	r30, X+
    115c:	fc 91       	ld	r31, X
    115e:	9c 97       	sbiw	r26, 0x2c	; 44
    1160:	90 81       	ld	r25, Z
    1162:	80 95       	com	r24
    1164:	89 23       	and	r24, r25
    1166:	80 83       	st	Z, r24
    1168:	85 e0       	ldi	r24, 0x05	; 5
    116a:	9e 96       	adiw	r26, 0x2e	; 46
    116c:	8c 93       	st	X, r24
    116e:	9e 97       	sbiw	r26, 0x2e	; 46
    1170:	86 e0       	ldi	r24, 0x06	; 6
    1172:	9f 96       	adiw	r26, 0x2f	; 47
    1174:	8c 93       	st	X, r24
    1176:	9f 97       	sbiw	r26, 0x2f	; 47
    1178:	cf 91       	pop	r28
    117a:	df 91       	pop	r29
    117c:	0f 91       	pop	r16
    117e:	ff 90       	pop	r15
    1180:	ef 90       	pop	r14
    1182:	df 90       	pop	r13
    1184:	cf 90       	pop	r12
    1186:	bf 90       	pop	r11
    1188:	af 90       	pop	r10
    118a:	9f 90       	pop	r9
    118c:	8f 90       	pop	r8
    118e:	7f 90       	pop	r7
    1190:	6f 90       	pop	r6
    1192:	5f 90       	pop	r5
    1194:	4f 90       	pop	r4
    1196:	3f 90       	pop	r3
    1198:	2f 90       	pop	r2
    119a:	08 95       	ret

0000119c <_ZN34MHV_Display_HD44780_Direct_Connect11writeNibbleEhb>:
    119c:	cf 93       	push	r28
    119e:	df 93       	push	r29
    11a0:	fc 01       	movw	r30, r24
    11a2:	a2 a1       	ldd	r26, Z+34	; 0x22
    11a4:	b3 a1       	ldd	r27, Z+35	; 0x23
    11a6:	8c 91       	ld	r24, X
    11a8:	57 a1       	ldd	r21, Z+39	; 0x27
    11aa:	50 95       	com	r21
    11ac:	58 23       	and	r21, r24
    11ae:	a0 a5       	ldd	r26, Z+40	; 0x28
    11b0:	b1 a5       	ldd	r27, Z+41	; 0x29
    11b2:	7c 91       	ld	r23, X
    11b4:	82 a5       	ldd	r24, Z+42	; 0x2a
    11b6:	90 e0       	ldi	r25, 0x00	; 0
    11b8:	01 96       	adiw	r24, 0x01	; 1
    11ba:	21 e0       	ldi	r18, 0x01	; 1
    11bc:	30 e0       	ldi	r19, 0x00	; 0
    11be:	e9 01       	movw	r28, r18
    11c0:	02 c0       	rjmp	.+4      	; 0x11c6 <_ZN34MHV_Display_HD44780_Direct_Connect11writeNibbleEhb+0x2a>
    11c2:	cc 0f       	add	r28, r28
    11c4:	dd 1f       	adc	r29, r29
    11c6:	8a 95       	dec	r24
    11c8:	e2 f7       	brpl	.-8      	; 0x11c2 <_ZN34MHV_Display_HD44780_Direct_Connect11writeNibbleEhb+0x26>
    11ca:	ce 01       	movw	r24, r28
    11cc:	80 95       	com	r24
    11ce:	87 23       	and	r24, r23
    11d0:	8c 93       	st	X, r24
    11d2:	44 23       	and	r20, r20
    11d4:	59 f0       	breq	.+22     	; 0x11ec <_ZN34MHV_Display_HD44780_Direct_Connect11writeNibbleEhb+0x50>
    11d6:	a0 a5       	ldd	r26, Z+40	; 0x28
    11d8:	b1 a5       	ldd	r27, Z+41	; 0x29
    11da:	8c 91       	ld	r24, X
    11dc:	02 a4       	ldd	r0, Z+42	; 0x2a
    11de:	02 c0       	rjmp	.+4      	; 0x11e4 <_ZN34MHV_Display_HD44780_Direct_Connect11writeNibbleEhb+0x48>
    11e0:	22 0f       	add	r18, r18
    11e2:	33 1f       	adc	r19, r19
    11e4:	0a 94       	dec	r0
    11e6:	e2 f7       	brpl	.-8      	; 0x11e0 <_ZN34MHV_Display_HD44780_Direct_Connect11writeNibbleEhb+0x44>
    11e8:	82 2b       	or	r24, r18
    11ea:	8c 93       	st	X, r24
    11ec:	a2 a1       	ldd	r26, Z+34	; 0x22
    11ee:	b3 a1       	ldd	r27, Z+35	; 0x23
    11f0:	70 e0       	ldi	r23, 0x00	; 0
    11f2:	06 a0       	ldd	r0, Z+38	; 0x26
    11f4:	02 c0       	rjmp	.+4      	; 0x11fa <_ZN34MHV_Display_HD44780_Direct_Connect11writeNibbleEhb+0x5e>
    11f6:	66 0f       	add	r22, r22
    11f8:	77 1f       	adc	r23, r23
    11fa:	0a 94       	dec	r0
    11fc:	e2 f7       	brpl	.-8      	; 0x11f6 <_ZN34MHV_Display_HD44780_Direct_Connect11writeNibbleEhb+0x5a>
    11fe:	87 a1       	ldd	r24, Z+39	; 0x27
    1200:	86 23       	and	r24, r22
    1202:	85 2b       	or	r24, r21
    1204:	8c 93       	st	X, r24
    1206:	82 e0       	ldi	r24, 0x02	; 2
    1208:	8a 95       	dec	r24
    120a:	f1 f7       	brne	.-4      	; 0x1208 <_ZN34MHV_Display_HD44780_Direct_Connect11writeNibbleEhb+0x6c>
    120c:	a0 a5       	ldd	r26, Z+40	; 0x28
    120e:	b1 a5       	ldd	r27, Z+41	; 0x29
    1210:	4c 91       	ld	r20, X
    1212:	22 a5       	ldd	r18, Z+42	; 0x2a
    1214:	30 e0       	ldi	r19, 0x00	; 0
    1216:	2e 5f       	subi	r18, 0xFE	; 254
    1218:	3f 4f       	sbci	r19, 0xFF	; 255
    121a:	81 e0       	ldi	r24, 0x01	; 1
    121c:	90 e0       	ldi	r25, 0x00	; 0
    121e:	bc 01       	movw	r22, r24
    1220:	02 c0       	rjmp	.+4      	; 0x1226 <_ZN34MHV_Display_HD44780_Direct_Connect11writeNibbleEhb+0x8a>
    1222:	66 0f       	add	r22, r22
    1224:	77 1f       	adc	r23, r23
    1226:	2a 95       	dec	r18
    1228:	e2 f7       	brpl	.-8      	; 0x1222 <_ZN34MHV_Display_HD44780_Direct_Connect11writeNibbleEhb+0x86>
    122a:	46 2b       	or	r20, r22
    122c:	4c 93       	st	X, r20
    122e:	48 e0       	ldi	r20, 0x08	; 8
    1230:	24 2f       	mov	r18, r20
    1232:	2a 95       	dec	r18
    1234:	f1 f7       	brne	.-4      	; 0x1232 <_ZN34MHV_Display_HD44780_Direct_Connect11writeNibbleEhb+0x96>
    1236:	a0 a5       	ldd	r26, Z+40	; 0x28
    1238:	b1 a5       	ldd	r27, Z+41	; 0x29
    123a:	6c 91       	ld	r22, X
    123c:	52 a5       	ldd	r21, Z+42	; 0x2a
    123e:	25 2f       	mov	r18, r21
    1240:	30 e0       	ldi	r19, 0x00	; 0
    1242:	2e 5f       	subi	r18, 0xFE	; 254
    1244:	3f 4f       	sbci	r19, 0xFF	; 255
    1246:	ec 01       	movw	r28, r24
    1248:	02 c0       	rjmp	.+4      	; 0x124e <_ZN34MHV_Display_HD44780_Direct_Connect11writeNibbleEhb+0xb2>
    124a:	cc 0f       	add	r28, r28
    124c:	dd 1f       	adc	r29, r29
    124e:	2a 95       	dec	r18
    1250:	e2 f7       	brpl	.-8      	; 0x124a <_ZN34MHV_Display_HD44780_Direct_Connect11writeNibbleEhb+0xae>
    1252:	02 c0       	rjmp	.+4      	; 0x1258 <_ZN34MHV_Display_HD44780_Direct_Connect11writeNibbleEhb+0xbc>
    1254:	88 0f       	add	r24, r24
    1256:	99 1f       	adc	r25, r25
    1258:	5a 95       	dec	r21
    125a:	e2 f7       	brpl	.-8      	; 0x1254 <_ZN34MHV_Display_HD44780_Direct_Connect11writeNibbleEhb+0xb8>
    125c:	8c 2b       	or	r24, r28
    125e:	80 95       	com	r24
    1260:	86 23       	and	r24, r22
    1262:	8c 93       	st	X, r24
    1264:	84 2f       	mov	r24, r20
    1266:	8a 95       	dec	r24
    1268:	f1 f7       	brne	.-4      	; 0x1266 <_ZN34MHV_Display_HD44780_Direct_Connect11writeNibbleEhb+0xca>
    126a:	df 91       	pop	r29
    126c:	cf 91       	pop	r28
    126e:	08 95       	ret

00001270 <_ZN34MHV_Display_HD44780_Direct_Connect9writeByteEhb>:
    1270:	0f 93       	push	r16
    1272:	1f 93       	push	r17
    1274:	cf 93       	push	r28
    1276:	df 93       	push	r29
    1278:	ec 01       	movw	r28, r24
    127a:	06 2f       	mov	r16, r22
    127c:	14 2f       	mov	r17, r20
    127e:	26 2f       	mov	r18, r22
    1280:	30 e0       	ldi	r19, 0x00	; 0
    1282:	84 e0       	ldi	r24, 0x04	; 4
    1284:	35 95       	asr	r19
    1286:	27 95       	ror	r18
    1288:	8a 95       	dec	r24
    128a:	e1 f7       	brne	.-8      	; 0x1284 <_ZN34MHV_Display_HD44780_Direct_Connect9writeByteEhb+0x14>
    128c:	ce 01       	movw	r24, r28
    128e:	62 2f       	mov	r22, r18
    1290:	0e 94 ce 08 	call	0x119c	; 0x119c <_ZN34MHV_Display_HD44780_Direct_Connect11writeNibbleEhb>
    1294:	60 2f       	mov	r22, r16
    1296:	6f 70       	andi	r22, 0x0F	; 15
    1298:	ce 01       	movw	r24, r28
    129a:	41 2f       	mov	r20, r17
    129c:	0e 94 ce 08 	call	0x119c	; 0x119c <_ZN34MHV_Display_HD44780_Direct_Connect11writeNibbleEhb>
    12a0:	df 91       	pop	r29
    12a2:	cf 91       	pop	r28
    12a4:	1f 91       	pop	r17
    12a6:	0f 91       	pop	r16
    12a8:	08 95       	ret

000012aa <_ZN34MHV_Display_HD44780_Direct_Connect10readNibbleEb>:
    12aa:	cf 93       	push	r28
    12ac:	df 93       	push	r29
    12ae:	fc 01       	movw	r30, r24
    12b0:	a0 a5       	ldd	r26, Z+40	; 0x28
    12b2:	b1 a5       	ldd	r27, Z+41	; 0x29
    12b4:	4c 91       	ld	r20, X
    12b6:	82 a5       	ldd	r24, Z+42	; 0x2a
    12b8:	90 e0       	ldi	r25, 0x00	; 0
    12ba:	01 96       	adiw	r24, 0x01	; 1
    12bc:	21 e0       	ldi	r18, 0x01	; 1
    12be:	30 e0       	ldi	r19, 0x00	; 0
    12c0:	e9 01       	movw	r28, r18
    12c2:	02 c0       	rjmp	.+4      	; 0x12c8 <_ZN34MHV_Display_HD44780_Direct_Connect10readNibbleEb+0x1e>
    12c4:	cc 0f       	add	r28, r28
    12c6:	dd 1f       	adc	r29, r29
    12c8:	8a 95       	dec	r24
    12ca:	e2 f7       	brpl	.-8      	; 0x12c4 <_ZN34MHV_Display_HD44780_Direct_Connect10readNibbleEb+0x1a>
    12cc:	4c 2b       	or	r20, r28
    12ce:	4c 93       	st	X, r20
    12d0:	66 23       	and	r22, r22
    12d2:	59 f0       	breq	.+22     	; 0x12ea <_ZN34MHV_Display_HD44780_Direct_Connect10readNibbleEb+0x40>
    12d4:	a0 a5       	ldd	r26, Z+40	; 0x28
    12d6:	b1 a5       	ldd	r27, Z+41	; 0x29
    12d8:	8c 91       	ld	r24, X
    12da:	02 a4       	ldd	r0, Z+42	; 0x2a
    12dc:	02 c0       	rjmp	.+4      	; 0x12e2 <_ZN34MHV_Display_HD44780_Direct_Connect10readNibbleEb+0x38>
    12de:	22 0f       	add	r18, r18
    12e0:	33 1f       	adc	r19, r19
    12e2:	0a 94       	dec	r0
    12e4:	e2 f7       	brpl	.-8      	; 0x12de <_ZN34MHV_Display_HD44780_Direct_Connect10readNibbleEb+0x34>
    12e6:	82 2b       	or	r24, r18
    12e8:	8c 93       	st	X, r24
    12ea:	a0 a1       	ldd	r26, Z+32	; 0x20
    12ec:	b1 a1       	ldd	r27, Z+33	; 0x21
    12ee:	9c 91       	ld	r25, X
    12f0:	87 a1       	ldd	r24, Z+39	; 0x27
    12f2:	80 95       	com	r24
    12f4:	89 23       	and	r24, r25
    12f6:	8c 93       	st	X, r24
    12f8:	82 e0       	ldi	r24, 0x02	; 2
    12fa:	8a 95       	dec	r24
    12fc:	f1 f7       	brne	.-4      	; 0x12fa <_ZN34MHV_Display_HD44780_Direct_Connect10readNibbleEb+0x50>
    12fe:	a0 a5       	ldd	r26, Z+40	; 0x28
    1300:	b1 a5       	ldd	r27, Z+41	; 0x29
    1302:	4c 91       	ld	r20, X
    1304:	82 a5       	ldd	r24, Z+42	; 0x2a
    1306:	90 e0       	ldi	r25, 0x00	; 0
    1308:	02 96       	adiw	r24, 0x02	; 2
    130a:	21 e0       	ldi	r18, 0x01	; 1
    130c:	30 e0       	ldi	r19, 0x00	; 0
    130e:	b9 01       	movw	r22, r18
    1310:	02 c0       	rjmp	.+4      	; 0x1316 <_ZN34MHV_Display_HD44780_Direct_Connect10readNibbleEb+0x6c>
    1312:	66 0f       	add	r22, r22
    1314:	77 1f       	adc	r23, r23
    1316:	8a 95       	dec	r24
    1318:	e2 f7       	brpl	.-8      	; 0x1312 <_ZN34MHV_Display_HD44780_Direct_Connect10readNibbleEb+0x68>
    131a:	46 2b       	or	r20, r22
    131c:	4c 93       	st	X, r20
    131e:	68 e0       	ldi	r22, 0x08	; 8
    1320:	86 2f       	mov	r24, r22
    1322:	8a 95       	dec	r24
    1324:	f1 f7       	brne	.-4      	; 0x1322 <_ZN34MHV_Display_HD44780_Direct_Connect10readNibbleEb+0x78>
    1326:	a4 a1       	ldd	r26, Z+36	; 0x24
    1328:	b5 a1       	ldd	r27, Z+37	; 0x25
    132a:	8c 91       	ld	r24, X
    132c:	a0 a5       	ldd	r26, Z+40	; 0x28
    132e:	b1 a5       	ldd	r27, Z+41	; 0x29
    1330:	7c 91       	ld	r23, X
    1332:	92 a5       	ldd	r25, Z+42	; 0x2a
    1334:	49 2f       	mov	r20, r25
    1336:	50 e0       	ldi	r21, 0x00	; 0
    1338:	4e 5f       	subi	r20, 0xFE	; 254
    133a:	5f 4f       	sbci	r21, 0xFF	; 255
    133c:	e9 01       	movw	r28, r18
    133e:	02 c0       	rjmp	.+4      	; 0x1344 <_ZN34MHV_Display_HD44780_Direct_Connect10readNibbleEb+0x9a>
    1340:	cc 0f       	add	r28, r28
    1342:	dd 1f       	adc	r29, r29
    1344:	4a 95       	dec	r20
    1346:	e2 f7       	brpl	.-8      	; 0x1340 <_ZN34MHV_Display_HD44780_Direct_Connect10readNibbleEb+0x96>
    1348:	02 c0       	rjmp	.+4      	; 0x134e <_ZN34MHV_Display_HD44780_Direct_Connect10readNibbleEb+0xa4>
    134a:	22 0f       	add	r18, r18
    134c:	33 1f       	adc	r19, r19
    134e:	9a 95       	dec	r25
    1350:	e2 f7       	brpl	.-8      	; 0x134a <_ZN34MHV_Display_HD44780_Direct_Connect10readNibbleEb+0xa0>
    1352:	2c 2b       	or	r18, r28
    1354:	20 95       	com	r18
    1356:	27 23       	and	r18, r23
    1358:	2c 93       	st	X, r18
    135a:	a0 a1       	ldd	r26, Z+32	; 0x20
    135c:	b1 a1       	ldd	r27, Z+33	; 0x21
    135e:	9c 91       	ld	r25, X
    1360:	27 a1       	ldd	r18, Z+39	; 0x27
    1362:	92 2b       	or	r25, r18
    1364:	9c 93       	st	X, r25
    1366:	96 2f       	mov	r25, r22
    1368:	9a 95       	dec	r25
    136a:	f1 f7       	brne	.-4      	; 0x1368 <_ZN34MHV_Display_HD44780_Direct_Connect10readNibbleEb+0xbe>
    136c:	90 e0       	ldi	r25, 0x00	; 0
    136e:	06 a0       	ldd	r0, Z+38	; 0x26
    1370:	02 c0       	rjmp	.+4      	; 0x1376 <_ZN34MHV_Display_HD44780_Direct_Connect10readNibbleEb+0xcc>
    1372:	95 95       	asr	r25
    1374:	87 95       	ror	r24
    1376:	0a 94       	dec	r0
    1378:	e2 f7       	brpl	.-8      	; 0x1372 <_ZN34MHV_Display_HD44780_Direct_Connect10readNibbleEb+0xc8>
    137a:	df 91       	pop	r29
    137c:	cf 91       	pop	r28
    137e:	08 95       	ret

00001380 <_ZN34MHV_Display_HD44780_Direct_Connect8readByteEb>:
    1380:	0f 93       	push	r16
    1382:	1f 93       	push	r17
    1384:	cf 93       	push	r28
    1386:	df 93       	push	r29
    1388:	ec 01       	movw	r28, r24
    138a:	16 2f       	mov	r17, r22
    138c:	0e 94 55 09 	call	0x12aa	; 0x12aa <_ZN34MHV_Display_HD44780_Direct_Connect10readNibbleEb>
    1390:	08 2f       	mov	r16, r24
    1392:	02 95       	swap	r16
    1394:	00 7f       	andi	r16, 0xF0	; 240
    1396:	ce 01       	movw	r24, r28
    1398:	61 2f       	mov	r22, r17
    139a:	0e 94 55 09 	call	0x12aa	; 0x12aa <_ZN34MHV_Display_HD44780_Direct_Connect10readNibbleEb>
    139e:	80 2b       	or	r24, r16
    13a0:	df 91       	pop	r29
    13a2:	cf 91       	pop	r28
    13a4:	1f 91       	pop	r17
    13a6:	0f 91       	pop	r16
    13a8:	08 95       	ret

000013aa <_ZN34MHV_Display_HD44780_Direct_Connect7tickPWMEv>:
    13aa:	fc 01       	movw	r30, r24
    13ac:	82 8d       	ldd	r24, Z+26	; 0x1a
    13ae:	93 8d       	ldd	r25, Z+27	; 0x1b
    13b0:	8f 70       	andi	r24, 0x0F	; 15
    13b2:	90 70       	andi	r25, 0x00	; 0
    13b4:	00 97       	sbiw	r24, 0x00	; 0
    13b6:	d9 f4       	brne	.+54     	; 0x13ee <_ZN34MHV_Display_HD44780_Direct_Connect7tickPWMEv+0x44>
    13b8:	a3 a5       	ldd	r26, Z+43	; 0x2b
    13ba:	b4 a5       	ldd	r27, Z+44	; 0x2c
    13bc:	4c 91       	ld	r20, X
    13be:	85 a5       	ldd	r24, Z+45	; 0x2d
    13c0:	90 e0       	ldi	r25, 0x00	; 0
    13c2:	01 96       	adiw	r24, 0x01	; 1
    13c4:	21 e0       	ldi	r18, 0x01	; 1
    13c6:	30 e0       	ldi	r19, 0x00	; 0
    13c8:	b9 01       	movw	r22, r18
    13ca:	02 c0       	rjmp	.+4      	; 0x13d0 <_ZN34MHV_Display_HD44780_Direct_Connect7tickPWMEv+0x26>
    13cc:	66 0f       	add	r22, r22
    13ce:	77 1f       	adc	r23, r23
    13d0:	8a 95       	dec	r24
    13d2:	e2 f7       	brpl	.-8      	; 0x13cc <_ZN34MHV_Display_HD44780_Direct_Connect7tickPWMEv+0x22>
    13d4:	46 2b       	or	r20, r22
    13d6:	4c 93       	st	X, r20
    13d8:	a3 a5       	ldd	r26, Z+43	; 0x2b
    13da:	b4 a5       	ldd	r27, Z+44	; 0x2c
    13dc:	8c 91       	ld	r24, X
    13de:	05 a4       	ldd	r0, Z+45	; 0x2d
    13e0:	02 c0       	rjmp	.+4      	; 0x13e6 <_ZN34MHV_Display_HD44780_Direct_Connect7tickPWMEv+0x3c>
    13e2:	22 0f       	add	r18, r18
    13e4:	33 1f       	adc	r19, r19
    13e6:	0a 94       	dec	r0
    13e8:	e2 f7       	brpl	.-8      	; 0x13e2 <_ZN34MHV_Display_HD44780_Direct_Connect7tickPWMEv+0x38>
    13ea:	82 2b       	or	r24, r18
    13ec:	8c 93       	st	X, r24
    13ee:	26 a5       	ldd	r18, Z+46	; 0x2e
    13f0:	30 e0       	ldi	r19, 0x00	; 0
    13f2:	82 8d       	ldd	r24, Z+26	; 0x1a
    13f4:	93 8d       	ldd	r25, Z+27	; 0x1b
    13f6:	8f 70       	andi	r24, 0x0F	; 15
    13f8:	90 70       	andi	r25, 0x00	; 0
    13fa:	28 17       	cp	r18, r24
    13fc:	39 07       	cpc	r19, r25
    13fe:	89 f4       	brne	.+34     	; 0x1422 <_ZN34MHV_Display_HD44780_Direct_Connect7tickPWMEv+0x78>
    1400:	a3 a5       	ldd	r26, Z+43	; 0x2b
    1402:	b4 a5       	ldd	r27, Z+44	; 0x2c
    1404:	4c 91       	ld	r20, X
    1406:	25 a5       	ldd	r18, Z+45	; 0x2d
    1408:	30 e0       	ldi	r19, 0x00	; 0
    140a:	2f 5f       	subi	r18, 0xFF	; 255
    140c:	3f 4f       	sbci	r19, 0xFF	; 255
    140e:	81 e0       	ldi	r24, 0x01	; 1
    1410:	90 e0       	ldi	r25, 0x00	; 0
    1412:	02 c0       	rjmp	.+4      	; 0x1418 <_ZN34MHV_Display_HD44780_Direct_Connect7tickPWMEv+0x6e>
    1414:	88 0f       	add	r24, r24
    1416:	99 1f       	adc	r25, r25
    1418:	2a 95       	dec	r18
    141a:	e2 f7       	brpl	.-8      	; 0x1414 <_ZN34MHV_Display_HD44780_Direct_Connect7tickPWMEv+0x6a>
    141c:	80 95       	com	r24
    141e:	84 23       	and	r24, r20
    1420:	8c 93       	st	X, r24
    1422:	27 a5       	ldd	r18, Z+47	; 0x2f
    1424:	30 e0       	ldi	r19, 0x00	; 0
    1426:	82 8d       	ldd	r24, Z+26	; 0x1a
    1428:	93 8d       	ldd	r25, Z+27	; 0x1b
    142a:	8f 70       	andi	r24, 0x0F	; 15
    142c:	90 70       	andi	r25, 0x00	; 0
    142e:	28 17       	cp	r18, r24
    1430:	39 07       	cpc	r19, r25
    1432:	71 f4       	brne	.+28     	; 0x1450 <_ZN34MHV_Display_HD44780_Direct_Connect7tickPWMEv+0xa6>
    1434:	a3 a5       	ldd	r26, Z+43	; 0x2b
    1436:	b4 a5       	ldd	r27, Z+44	; 0x2c
    1438:	2c 91       	ld	r18, X
    143a:	81 e0       	ldi	r24, 0x01	; 1
    143c:	90 e0       	ldi	r25, 0x00	; 0
    143e:	05 a4       	ldd	r0, Z+45	; 0x2d
    1440:	02 c0       	rjmp	.+4      	; 0x1446 <_ZN34MHV_Display_HD44780_Direct_Connect7tickPWMEv+0x9c>
    1442:	88 0f       	add	r24, r24
    1444:	99 1f       	adc	r25, r25
    1446:	0a 94       	dec	r0
    1448:	e2 f7       	brpl	.-8      	; 0x1442 <_ZN34MHV_Display_HD44780_Direct_Connect7tickPWMEv+0x98>
    144a:	80 95       	com	r24
    144c:	82 23       	and	r24, r18
    144e:	8c 93       	st	X, r24
    1450:	82 8d       	ldd	r24, Z+26	; 0x1a
    1452:	93 8d       	ldd	r25, Z+27	; 0x1b
    1454:	01 96       	adiw	r24, 0x01	; 1
    1456:	93 8f       	std	Z+27, r25	; 0x1b
    1458:	82 8f       	std	Z+26, r24	; 0x1a
    145a:	08 95       	ret

0000145c <_ZN14MHV_RingBufferC1EPch>:
    145c:	fc 01       	movw	r30, r24
    145e:	71 83       	std	Z+1, r23	; 0x01
    1460:	60 83       	st	Z, r22
    1462:	42 83       	std	Z+2, r20	; 0x02
    1464:	13 82       	std	Z+3, r1	; 0x03
    1466:	14 82       	std	Z+4, r1	; 0x04
    1468:	08 95       	ret

0000146a <_ZN14MHV_RingBuffer6appendEc>:
    146a:	fc 01       	movw	r30, r24
    146c:	93 81       	ldd	r25, Z+3	; 0x03
    146e:	89 2f       	mov	r24, r25
    1470:	8f 5f       	subi	r24, 0xFF	; 255
    1472:	22 81       	ldd	r18, Z+2	; 0x02
    1474:	82 17       	cp	r24, r18
    1476:	09 f4       	brne	.+2      	; 0x147a <_ZN14MHV_RingBuffer6appendEc+0x10>
    1478:	80 e0       	ldi	r24, 0x00	; 0
    147a:	24 81       	ldd	r18, Z+4	; 0x04
    147c:	82 17       	cp	r24, r18
    147e:	41 f0       	breq	.+16     	; 0x1490 <_ZN14MHV_RingBuffer6appendEc+0x26>
    1480:	a0 81       	ld	r26, Z
    1482:	b1 81       	ldd	r27, Z+1	; 0x01
    1484:	a9 0f       	add	r26, r25
    1486:	b1 1d       	adc	r27, r1
    1488:	6c 93       	st	X, r22
    148a:	83 83       	std	Z+3, r24	; 0x03
    148c:	80 e0       	ldi	r24, 0x00	; 0
    148e:	08 95       	ret
    1490:	81 e0       	ldi	r24, 0x01	; 1
    1492:	08 95       	ret

00001494 <_ZN14MHV_RingBuffer7consumeEv>:
    1494:	fc 01       	movw	r30, r24
    1496:	84 81       	ldd	r24, Z+4	; 0x04
    1498:	93 81       	ldd	r25, Z+3	; 0x03
    149a:	98 17       	cp	r25, r24
    149c:	69 f0       	breq	.+26     	; 0x14b8 <_ZN14MHV_RingBuffer7consumeEv+0x24>
    149e:	a0 81       	ld	r26, Z
    14a0:	b1 81       	ldd	r27, Z+1	; 0x01
    14a2:	a8 0f       	add	r26, r24
    14a4:	b1 1d       	adc	r27, r1
    14a6:	2c 91       	ld	r18, X
    14a8:	8f 5f       	subi	r24, 0xFF	; 255
    14aa:	92 81       	ldd	r25, Z+2	; 0x02
    14ac:	89 17       	cp	r24, r25
    14ae:	09 f4       	brne	.+2      	; 0x14b2 <_ZN14MHV_RingBuffer7consumeEv+0x1e>
    14b0:	80 e0       	ldi	r24, 0x00	; 0
    14b2:	84 83       	std	Z+4, r24	; 0x04
    14b4:	30 e0       	ldi	r19, 0x00	; 0
    14b6:	02 c0       	rjmp	.+4      	; 0x14bc <_ZN14MHV_RingBuffer7consumeEv+0x28>
    14b8:	2f ef       	ldi	r18, 0xFF	; 255
    14ba:	3f ef       	ldi	r19, 0xFF	; 255
    14bc:	c9 01       	movw	r24, r18
    14be:	08 95       	ret

000014c0 <_ZN14MHV_RingBuffer6lengthEv>:
    14c0:	fc 01       	movw	r30, r24
    14c2:	43 81       	ldd	r20, Z+3	; 0x03
    14c4:	50 e0       	ldi	r21, 0x00	; 0
    14c6:	24 81       	ldd	r18, Z+4	; 0x04
    14c8:	30 e0       	ldi	r19, 0x00	; 0
    14ca:	ca 01       	movw	r24, r20
    14cc:	82 1b       	sub	r24, r18
    14ce:	93 0b       	sbc	r25, r19
    14d0:	97 ff       	sbrs	r25, 7
    14d2:	08 c0       	rjmp	.+16     	; 0x14e4 <_ZN14MHV_RingBuffer6lengthEv+0x24>
    14d4:	82 81       	ldd	r24, Z+2	; 0x02
    14d6:	ba 01       	movw	r22, r20
    14d8:	68 0f       	add	r22, r24
    14da:	71 1d       	adc	r23, r1
    14dc:	cb 01       	movw	r24, r22
    14de:	01 96       	adiw	r24, 0x01	; 1
    14e0:	82 1b       	sub	r24, r18
    14e2:	93 0b       	sbc	r25, r19
    14e4:	08 95       	ret

000014e6 <_ZN14MHV_RingBuffer7consumeEPvh>:
    14e6:	cf 92       	push	r12
    14e8:	df 92       	push	r13
    14ea:	ef 92       	push	r14
    14ec:	ff 92       	push	r15
    14ee:	0f 93       	push	r16
    14f0:	1f 93       	push	r17
    14f2:	df 93       	push	r29
    14f4:	cf 93       	push	r28
    14f6:	0f 92       	push	r0
    14f8:	cd b7       	in	r28, 0x3d	; 61
    14fa:	de b7       	in	r29, 0x3e	; 62
    14fc:	6c 01       	movw	r12, r24
    14fe:	f6 2e       	mov	r15, r22
    1500:	e4 2e       	mov	r14, r20
    1502:	79 83       	std	Y+1, r23	; 0x01
    1504:	0e 94 60 0a 	call	0x14c0	; 0x14c0 <_ZN14MHV_RingBuffer6lengthEv>
    1508:	79 81       	ldd	r23, Y+1	; 0x01
    150a:	8e 15       	cp	r24, r14
    150c:	78 f0       	brcs	.+30     	; 0x152c <_ZN14MHV_RingBuffer7consumeEPvh+0x46>
    150e:	0f 2d       	mov	r16, r15
    1510:	17 2f       	mov	r17, r23
    1512:	06 c0       	rjmp	.+12     	; 0x1520 <_ZN14MHV_RingBuffer7consumeEPvh+0x3a>
    1514:	c6 01       	movw	r24, r12
    1516:	0e 94 4a 0a 	call	0x1494	; 0x1494 <_ZN14MHV_RingBuffer7consumeEv>
    151a:	f8 01       	movw	r30, r16
    151c:	81 93       	st	Z+, r24
    151e:	8f 01       	movw	r16, r30
    1520:	80 2f       	mov	r24, r16
    1522:	8f 19       	sub	r24, r15
    1524:	8e 15       	cp	r24, r14
    1526:	b0 f3       	brcs	.-20     	; 0x1514 <_ZN14MHV_RingBuffer7consumeEPvh+0x2e>
    1528:	80 e0       	ldi	r24, 0x00	; 0
    152a:	01 c0       	rjmp	.+2      	; 0x152e <_ZN14MHV_RingBuffer7consumeEPvh+0x48>
    152c:	81 e0       	ldi	r24, 0x01	; 1
    152e:	0f 90       	pop	r0
    1530:	cf 91       	pop	r28
    1532:	df 91       	pop	r29
    1534:	1f 91       	pop	r17
    1536:	0f 91       	pop	r16
    1538:	ff 90       	pop	r15
    153a:	ef 90       	pop	r14
    153c:	df 90       	pop	r13
    153e:	cf 90       	pop	r12
    1540:	08 95       	ret

00001542 <_ZN14MHV_RingBuffer4fullEh>:
    1542:	0f 93       	push	r16
    1544:	1f 93       	push	r17
    1546:	df 93       	push	r29
    1548:	cf 93       	push	r28
    154a:	0f 92       	push	r0
    154c:	cd b7       	in	r28, 0x3d	; 61
    154e:	de b7       	in	r29, 0x3e	; 62
    1550:	8c 01       	movw	r16, r24
    1552:	69 83       	std	Y+1, r22	; 0x01
    1554:	0e 94 60 0a 	call	0x14c0	; 0x14c0 <_ZN14MHV_RingBuffer6lengthEv>
    1558:	48 2f       	mov	r20, r24
    155a:	50 e0       	ldi	r21, 0x00	; 0
    155c:	f8 01       	movw	r30, r16
    155e:	22 81       	ldd	r18, Z+2	; 0x02
    1560:	30 e0       	ldi	r19, 0x00	; 0
    1562:	21 50       	subi	r18, 0x01	; 1
    1564:	30 40       	sbci	r19, 0x00	; 0
    1566:	69 81       	ldd	r22, Y+1	; 0x01
    1568:	26 1b       	sub	r18, r22
    156a:	31 09       	sbc	r19, r1
    156c:	81 e0       	ldi	r24, 0x01	; 1
    156e:	24 17       	cp	r18, r20
    1570:	35 07       	cpc	r19, r21
    1572:	0c f0       	brlt	.+2      	; 0x1576 <_ZN14MHV_RingBuffer4fullEh+0x34>
    1574:	80 e0       	ldi	r24, 0x00	; 0
    1576:	0f 90       	pop	r0
    1578:	cf 91       	pop	r28
    157a:	df 91       	pop	r29
    157c:	1f 91       	pop	r17
    157e:	0f 91       	pop	r16
    1580:	08 95       	ret

00001582 <_ZN14MHV_RingBuffer6appendEPKvh>:
    1582:	cf 92       	push	r12
    1584:	df 92       	push	r13
    1586:	ef 92       	push	r14
    1588:	ff 92       	push	r15
    158a:	0f 93       	push	r16
    158c:	1f 93       	push	r17
    158e:	df 93       	push	r29
    1590:	cf 93       	push	r28
    1592:	0f 92       	push	r0
    1594:	cd b7       	in	r28, 0x3d	; 61
    1596:	de b7       	in	r29, 0x3e	; 62
    1598:	6c 01       	movw	r12, r24
    159a:	f6 2e       	mov	r15, r22
    159c:	e4 2e       	mov	r14, r20
    159e:	64 2f       	mov	r22, r20
    15a0:	79 83       	std	Y+1, r23	; 0x01
    15a2:	0e 94 a1 0a 	call	0x1542	; 0x1542 <_ZN14MHV_RingBuffer4fullEh>
    15a6:	79 81       	ldd	r23, Y+1	; 0x01
    15a8:	88 23       	and	r24, r24
    15aa:	79 f4       	brne	.+30     	; 0x15ca <_ZN14MHV_RingBuffer6appendEPKvh+0x48>
    15ac:	0f 2d       	mov	r16, r15
    15ae:	17 2f       	mov	r17, r23
    15b0:	06 c0       	rjmp	.+12     	; 0x15be <_ZN14MHV_RingBuffer6appendEPKvh+0x3c>
    15b2:	f8 01       	movw	r30, r16
    15b4:	61 91       	ld	r22, Z+
    15b6:	8f 01       	movw	r16, r30
    15b8:	c6 01       	movw	r24, r12
    15ba:	0e 94 35 0a 	call	0x146a	; 0x146a <_ZN14MHV_RingBuffer6appendEc>
    15be:	80 2f       	mov	r24, r16
    15c0:	8f 19       	sub	r24, r15
    15c2:	8e 15       	cp	r24, r14
    15c4:	b0 f3       	brcs	.-20     	; 0x15b2 <_ZN14MHV_RingBuffer6appendEPKvh+0x30>
    15c6:	80 e0       	ldi	r24, 0x00	; 0
    15c8:	01 c0       	rjmp	.+2      	; 0x15cc <_ZN14MHV_RingBuffer6appendEPKvh+0x4a>
    15ca:	81 e0       	ldi	r24, 0x01	; 1
    15cc:	0f 90       	pop	r0
    15ce:	cf 91       	pop	r28
    15d0:	df 91       	pop	r29
    15d2:	1f 91       	pop	r17
    15d4:	0f 91       	pop	r16
    15d6:	ff 90       	pop	r15
    15d8:	ef 90       	pop	r14
    15da:	df 90       	pop	r13
    15dc:	cf 90       	pop	r12
    15de:	08 95       	ret

000015e0 <_ZN10MHV_Timer8C1E14mhv_timer_typePVhS2_S2_S2_S2_S2_h>:
    15e0:	8f 92       	push	r8
    15e2:	af 92       	push	r10
    15e4:	bf 92       	push	r11
    15e6:	cf 92       	push	r12
    15e8:	df 92       	push	r13
    15ea:	ef 92       	push	r14
    15ec:	ff 92       	push	r15
    15ee:	0f 93       	push	r16
    15f0:	1f 93       	push	r17
    15f2:	df 93       	push	r29
    15f4:	cf 93       	push	r28
    15f6:	cd b7       	in	r28, 0x3d	; 61
    15f8:	de b7       	in	r29, 0x3e	; 62
    15fa:	fc 01       	movw	r30, r24
    15fc:	51 83       	std	Z+1, r21	; 0x01
    15fe:	40 83       	st	Z, r20
    1600:	33 83       	std	Z+3, r19	; 0x03
    1602:	22 83       	std	Z+2, r18	; 0x02
    1604:	15 83       	std	Z+5, r17	; 0x05
    1606:	04 83       	std	Z+4, r16	; 0x04
    1608:	f7 82       	std	Z+7, r15	; 0x07
    160a:	e6 82       	std	Z+6, r14	; 0x06
    160c:	d1 86       	std	Z+9, r13	; 0x09
    160e:	c0 86       	std	Z+8, r12	; 0x08
    1610:	b3 86       	std	Z+11, r11	; 0x0b
    1612:	a2 86       	std	Z+10, r10	; 0x0a
    1614:	84 86       	std	Z+12, r8	; 0x0c
    1616:	81 e0       	ldi	r24, 0x01	; 1
    1618:	86 87       	std	Z+14, r24	; 0x0e
    161a:	67 87       	std	Z+15, r22	; 0x0f
    161c:	88 e0       	ldi	r24, 0x08	; 8
    161e:	80 8b       	std	Z+16, r24	; 0x10
    1620:	15 86       	std	Z+13, r1	; 0x0d
    1622:	11 8a       	std	Z+17, r1	; 0x11
    1624:	15 8a       	std	Z+21, r1	; 0x15
    1626:	14 8a       	std	Z+20, r1	; 0x14
    1628:	11 8e       	std	Z+25, r1	; 0x19
    162a:	10 8e       	std	Z+24, r1	; 0x18
    162c:	13 8a       	std	Z+19, r1	; 0x13
    162e:	12 8a       	std	Z+18, r1	; 0x12
    1630:	17 8a       	std	Z+23, r1	; 0x17
    1632:	16 8a       	std	Z+22, r1	; 0x16
    1634:	cf 91       	pop	r28
    1636:	df 91       	pop	r29
    1638:	1f 91       	pop	r17
    163a:	0f 91       	pop	r16
    163c:	ff 90       	pop	r15
    163e:	ef 90       	pop	r14
    1640:	df 90       	pop	r13
    1642:	cf 90       	pop	r12
    1644:	bf 90       	pop	r11
    1646:	af 90       	pop	r10
    1648:	8f 90       	pop	r8
    164a:	08 95       	ret

0000164c <_ZN10MHV_Timer813_setPrescalerE19mhv_timer_prescaler>:
    164c:	dc 01       	movw	r26, r24
    164e:	12 96       	adiw	r26, 0x02	; 2
    1650:	ed 91       	ld	r30, X+
    1652:	fc 91       	ld	r31, X
    1654:	13 97       	sbiw	r26, 0x03	; 3
    1656:	80 81       	ld	r24, Z
    1658:	88 7f       	andi	r24, 0xF8	; 248
    165a:	68 2b       	or	r22, r24
    165c:	60 83       	st	Z, r22
    165e:	08 95       	ret

00001660 <_ZN10MHV_Timer817setGenerationModeEv>:
    1660:	fc 01       	movw	r30, r24
    1662:	86 85       	ldd	r24, Z+14	; 0x0e
    1664:	82 30       	cpi	r24, 0x02	; 2
    1666:	79 f0       	breq	.+30     	; 0x1686 <_ZN10MHV_Timer817setGenerationModeEv+0x26>
    1668:	82 30       	cpi	r24, 0x02	; 2
    166a:	38 f0       	brcs	.+14     	; 0x167a <_ZN10MHV_Timer817setGenerationModeEv+0x1a>
    166c:	84 30       	cpi	r24, 0x04	; 4
    166e:	e1 f0       	breq	.+56     	; 0x16a8 <_ZN10MHV_Timer817setGenerationModeEv+0x48>
    1670:	84 30       	cpi	r24, 0x04	; 4
    1672:	78 f0       	brcs	.+30     	; 0x1692 <_ZN10MHV_Timer817setGenerationModeEv+0x32>
    1674:	85 30       	cpi	r24, 0x05	; 5
    1676:	79 f5       	brne	.+94     	; 0x16d6 <_ZN10MHV_Timer817setGenerationModeEv+0x76>
    1678:	23 c0       	rjmp	.+70     	; 0x16c0 <_ZN10MHV_Timer817setGenerationModeEv+0x60>
    167a:	a0 81       	ld	r26, Z
    167c:	b1 81       	ldd	r27, Z+1	; 0x01
    167e:	8c 91       	ld	r24, X
    1680:	8c 7f       	andi	r24, 0xFC	; 252
    1682:	82 60       	ori	r24, 0x02	; 2
    1684:	0a c0       	rjmp	.+20     	; 0x169a <_ZN10MHV_Timer817setGenerationModeEv+0x3a>
    1686:	a0 81       	ld	r26, Z
    1688:	b1 81       	ldd	r27, Z+1	; 0x01
    168a:	8c 91       	ld	r24, X
    168c:	8c 7f       	andi	r24, 0xFC	; 252
    168e:	81 60       	ori	r24, 0x01	; 1
    1690:	0f c0       	rjmp	.+30     	; 0x16b0 <_ZN10MHV_Timer817setGenerationModeEv+0x50>
    1692:	a0 81       	ld	r26, Z
    1694:	b1 81       	ldd	r27, Z+1	; 0x01
    1696:	8c 91       	ld	r24, X
    1698:	83 60       	ori	r24, 0x03	; 3
    169a:	8c 93       	st	X, r24
    169c:	02 80       	ldd	r0, Z+2	; 0x02
    169e:	f3 81       	ldd	r31, Z+3	; 0x03
    16a0:	e0 2d       	mov	r30, r0
    16a2:	80 81       	ld	r24, Z
    16a4:	87 7f       	andi	r24, 0xF7	; 247
    16a6:	0a c0       	rjmp	.+20     	; 0x16bc <_ZN10MHV_Timer817setGenerationModeEv+0x5c>
    16a8:	a0 81       	ld	r26, Z
    16aa:	b1 81       	ldd	r27, Z+1	; 0x01
    16ac:	8c 91       	ld	r24, X
    16ae:	83 60       	ori	r24, 0x03	; 3
    16b0:	8c 93       	st	X, r24
    16b2:	02 80       	ldd	r0, Z+2	; 0x02
    16b4:	f3 81       	ldd	r31, Z+3	; 0x03
    16b6:	e0 2d       	mov	r30, r0
    16b8:	80 81       	ld	r24, Z
    16ba:	88 60       	ori	r24, 0x08	; 8
    16bc:	80 83       	st	Z, r24
    16be:	08 95       	ret
    16c0:	a0 81       	ld	r26, Z
    16c2:	b1 81       	ldd	r27, Z+1	; 0x01
    16c4:	8c 91       	ld	r24, X
    16c6:	83 60       	ori	r24, 0x03	; 3
    16c8:	8c 93       	st	X, r24
    16ca:	02 80       	ldd	r0, Z+2	; 0x02
    16cc:	f3 81       	ldd	r31, Z+3	; 0x03
    16ce:	e0 2d       	mov	r30, r0
    16d0:	80 81       	ld	r24, Z
    16d2:	87 7f       	andi	r24, 0xF7	; 247
    16d4:	80 83       	st	Z, r24
    16d6:	08 95       	ret

000016d8 <_ZN10MHV_Timer810setPeriodsE19mhv_timer_prescalerhh>:
    16d8:	ef 92       	push	r14
    16da:	ff 92       	push	r15
    16dc:	1f 93       	push	r17
    16de:	df 93       	push	r29
    16e0:	cf 93       	push	r28
    16e2:	00 d0       	rcall	.+0      	; 0x16e4 <_ZN10MHV_Timer810setPeriodsE19mhv_timer_prescalerhh+0xc>
    16e4:	cd b7       	in	r28, 0x3d	; 61
    16e6:	de b7       	in	r29, 0x3e	; 62
    16e8:	7c 01       	movw	r14, r24
    16ea:	1f b7       	in	r17, 0x3f	; 63
    16ec:	f8 94       	cli
    16ee:	dc 01       	movw	r26, r24
    16f0:	1d 96       	adiw	r26, 0x0d	; 13
    16f2:	6c 93       	st	X, r22
    16f4:	2a 83       	std	Y+2, r18	; 0x02
    16f6:	49 83       	std	Y+1, r20	; 0x01
    16f8:	0e 94 26 0b 	call	0x164c	; 0x164c <_ZN10MHV_Timer813_setPrescalerE19mhv_timer_prescaler>
    16fc:	d7 01       	movw	r26, r14
    16fe:	18 96       	adiw	r26, 0x08	; 8
    1700:	ed 91       	ld	r30, X+
    1702:	fc 91       	ld	r31, X
    1704:	19 97       	sbiw	r26, 0x09	; 9
    1706:	10 82       	st	Z, r1
    1708:	14 96       	adiw	r26, 0x04	; 4
    170a:	ed 91       	ld	r30, X+
    170c:	fc 91       	ld	r31, X
    170e:	15 97       	sbiw	r26, 0x05	; 5
    1710:	49 81       	ldd	r20, Y+1	; 0x01
    1712:	40 83       	st	Z, r20
    1714:	16 96       	adiw	r26, 0x06	; 6
    1716:	ed 91       	ld	r30, X+
    1718:	fc 91       	ld	r31, X
    171a:	17 97       	sbiw	r26, 0x07	; 7
    171c:	2a 81       	ldd	r18, Y+2	; 0x02
    171e:	20 83       	st	Z, r18
    1720:	1f bf       	out	0x3f, r17	; 63
    1722:	0f 90       	pop	r0
    1724:	0f 90       	pop	r0
    1726:	cf 91       	pop	r28
    1728:	df 91       	pop	r29
    172a:	1f 91       	pop	r17
    172c:	ff 90       	pop	r15
    172e:	ef 90       	pop	r14
    1730:	08 95       	ret

00001732 <_ZN10MHV_Timer86enableEv>:
    1732:	1f 93       	push	r17
    1734:	cf 93       	push	r28
    1736:	df 93       	push	r29
    1738:	ec 01       	movw	r28, r24
    173a:	1f b7       	in	r17, 0x3f	; 63
    173c:	f8 94       	cli
    173e:	e8 85       	ldd	r30, Y+8	; 0x08
    1740:	f9 85       	ldd	r31, Y+9	; 0x09
    1742:	10 82       	st	Z, r1
    1744:	6d 85       	ldd	r22, Y+13	; 0x0d
    1746:	0e 94 26 0b 	call	0x164c	; 0x164c <_ZN10MHV_Timer813_setPrescalerE19mhv_timer_prescaler>
    174a:	ce 01       	movw	r24, r28
    174c:	0e 94 30 0b 	call	0x1660	; 0x1660 <_ZN10MHV_Timer817setGenerationModeEv>
    1750:	8a 89       	ldd	r24, Y+18	; 0x12
    1752:	9b 89       	ldd	r25, Y+19	; 0x13
    1754:	00 97       	sbiw	r24, 0x00	; 0
    1756:	69 f0       	breq	.+26     	; 0x1772 <_ZN10MHV_Timer86enableEv+0x40>
    1758:	ea 85       	ldd	r30, Y+10	; 0x0a
    175a:	fb 85       	ldd	r31, Y+11	; 0x0b
    175c:	20 81       	ld	r18, Z
    175e:	81 e0       	ldi	r24, 0x01	; 1
    1760:	90 e0       	ldi	r25, 0x00	; 0
    1762:	0c 84       	ldd	r0, Y+12	; 0x0c
    1764:	02 c0       	rjmp	.+4      	; 0x176a <_ZN10MHV_Timer86enableEv+0x38>
    1766:	88 0f       	add	r24, r24
    1768:	99 1f       	adc	r25, r25
    176a:	0a 94       	dec	r0
    176c:	e2 f7       	brpl	.-8      	; 0x1766 <_ZN10MHV_Timer86enableEv+0x34>
    176e:	28 2b       	or	r18, r24
    1770:	20 83       	st	Z, r18
    1772:	ee 81       	ldd	r30, Y+6	; 0x06
    1774:	ff 81       	ldd	r31, Y+7	; 0x07
    1776:	80 81       	ld	r24, Z
    1778:	88 23       	and	r24, r24
    177a:	d9 f0       	breq	.+54     	; 0x17b2 <_ZN10MHV_Timer86enableEv+0x80>
    177c:	8e 89       	ldd	r24, Y+22	; 0x16
    177e:	9f 89       	ldd	r25, Y+23	; 0x17
    1780:	00 97       	sbiw	r24, 0x00	; 0
    1782:	b9 f0       	breq	.+46     	; 0x17b2 <_ZN10MHV_Timer86enableEv+0x80>
    1784:	ea 85       	ldd	r30, Y+10	; 0x0a
    1786:	fb 85       	ldd	r31, Y+11	; 0x0b
    1788:	40 81       	ld	r20, Z
    178a:	2c 85       	ldd	r18, Y+12	; 0x0c
    178c:	30 e0       	ldi	r19, 0x00	; 0
    178e:	2f 5f       	subi	r18, 0xFF	; 255
    1790:	3f 4f       	sbci	r19, 0xFF	; 255
    1792:	81 e0       	ldi	r24, 0x01	; 1
    1794:	90 e0       	ldi	r25, 0x00	; 0
    1796:	02 c0       	rjmp	.+4      	; 0x179c <_ZN10MHV_Timer86enableEv+0x6a>
    1798:	88 0f       	add	r24, r24
    179a:	99 1f       	adc	r25, r25
    179c:	2a 95       	dec	r18
    179e:	e2 f7       	brpl	.-8      	; 0x1798 <_ZN10MHV_Timer86enableEv+0x66>
    17a0:	48 2b       	or	r20, r24
    17a2:	40 83       	st	Z, r20
    17a4:	81 e0       	ldi	r24, 0x01	; 1
    17a6:	89 8b       	std	Y+17, r24	; 0x11
    17a8:	1f bf       	out	0x3f, r17	; 63
    17aa:	df 91       	pop	r29
    17ac:	cf 91       	pop	r28
    17ae:	1f 91       	pop	r17
    17b0:	08 95       	ret
    17b2:	19 8a       	std	Y+17, r1	; 0x11
    17b4:	f9 cf       	rjmp	.-14     	; 0x17a8 <_ZN10MHV_Timer86enableEv+0x76>

000017b6 <_ZN10MHV_Timer87disableEv>:
    17b6:	1f 93       	push	r17
    17b8:	cf 93       	push	r28
    17ba:	df 93       	push	r29
    17bc:	ec 01       	movw	r28, r24
    17be:	1f b7       	in	r17, 0x3f	; 63
    17c0:	f8 94       	cli
    17c2:	60 e0       	ldi	r22, 0x00	; 0
    17c4:	0e 94 26 0b 	call	0x164c	; 0x164c <_ZN10MHV_Timer813_setPrescalerE19mhv_timer_prescaler>
    17c8:	ea 85       	ldd	r30, Y+10	; 0x0a
    17ca:	fb 85       	ldd	r31, Y+11	; 0x0b
    17cc:	40 81       	ld	r20, Z
    17ce:	21 e0       	ldi	r18, 0x01	; 1
    17d0:	30 e0       	ldi	r19, 0x00	; 0
    17d2:	c9 01       	movw	r24, r18
    17d4:	0c 84       	ldd	r0, Y+12	; 0x0c
    17d6:	02 c0       	rjmp	.+4      	; 0x17dc <_ZN10MHV_Timer87disableEv+0x26>
    17d8:	88 0f       	add	r24, r24
    17da:	99 1f       	adc	r25, r25
    17dc:	0a 94       	dec	r0
    17de:	e2 f7       	brpl	.-8      	; 0x17d8 <_ZN10MHV_Timer87disableEv+0x22>
    17e0:	80 95       	com	r24
    17e2:	84 23       	and	r24, r20
    17e4:	80 83       	st	Z, r24
    17e6:	89 89       	ldd	r24, Y+17	; 0x11
    17e8:	88 23       	and	r24, r24
    17ea:	81 f0       	breq	.+32     	; 0x180c <_ZN10MHV_Timer87disableEv+0x56>
    17ec:	ea 85       	ldd	r30, Y+10	; 0x0a
    17ee:	fb 85       	ldd	r31, Y+11	; 0x0b
    17f0:	40 81       	ld	r20, Z
    17f2:	8c 85       	ldd	r24, Y+12	; 0x0c
    17f4:	90 e0       	ldi	r25, 0x00	; 0
    17f6:	01 96       	adiw	r24, 0x01	; 1
    17f8:	b9 01       	movw	r22, r18
    17fa:	02 c0       	rjmp	.+4      	; 0x1800 <_ZN10MHV_Timer87disableEv+0x4a>
    17fc:	66 0f       	add	r22, r22
    17fe:	77 1f       	adc	r23, r23
    1800:	8a 95       	dec	r24
    1802:	e2 f7       	brpl	.-8      	; 0x17fc <_ZN10MHV_Timer87disableEv+0x46>
    1804:	cb 01       	movw	r24, r22
    1806:	80 95       	com	r24
    1808:	84 23       	and	r24, r20
    180a:	80 83       	st	Z, r24
    180c:	1f bf       	out	0x3f, r17	; 63
    180e:	df 91       	pop	r29
    1810:	cf 91       	pop	r28
    1812:	1f 91       	pop	r17
    1814:	08 95       	ret

00001816 <_ZN10MHV_Timer88trigger1Ev>:
    1816:	cf 93       	push	r28
    1818:	df 93       	push	r29
    181a:	ec 01       	movw	r28, r24
    181c:	8e 85       	ldd	r24, Y+14	; 0x0e
    181e:	88 23       	and	r24, r24
    1820:	19 f4       	brne	.+6      	; 0x1828 <_ZN10MHV_Timer88trigger1Ev+0x12>
    1822:	ce 01       	movw	r24, r28
    1824:	0e 94 db 0b 	call	0x17b6	; 0x17b6 <_ZN10MHV_Timer87disableEv>
    1828:	ea 89       	ldd	r30, Y+18	; 0x12
    182a:	fb 89       	ldd	r31, Y+19	; 0x13
    182c:	8c 89       	ldd	r24, Y+20	; 0x14
    182e:	9d 89       	ldd	r25, Y+21	; 0x15
    1830:	09 95       	icall
    1832:	df 91       	pop	r29
    1834:	cf 91       	pop	r28
    1836:	08 95       	ret

00001838 <_ZN10MHV_Timer811setTriggersEPFvPvES0_S2_S0_>:
    1838:	0f 93       	push	r16
    183a:	1f 93       	push	r17
    183c:	fc 01       	movw	r30, r24
    183e:	73 8b       	std	Z+19, r23	; 0x13
    1840:	62 8b       	std	Z+18, r22	; 0x12
    1842:	55 8b       	std	Z+21, r21	; 0x15
    1844:	44 8b       	std	Z+20, r20	; 0x14
    1846:	37 8b       	std	Z+23, r19	; 0x17
    1848:	26 8b       	std	Z+22, r18	; 0x16
    184a:	11 8f       	std	Z+25, r17	; 0x19
    184c:	00 8f       	std	Z+24, r16	; 0x18
    184e:	1f 91       	pop	r17
    1850:	0f 91       	pop	r16
    1852:	08 95       	ret

00001854 <__tablejump2__>:
    1854:	ee 0f       	add	r30, r30
    1856:	ff 1f       	adc	r31, r31

00001858 <__tablejump__>:
    1858:	05 90       	lpm	r0, Z+
    185a:	f4 91       	lpm	r31, Z
    185c:	e0 2d       	mov	r30, r0
    185e:	09 94       	ijmp

00001860 <_exit>:
    1860:	f8 94       	cli

00001862 <__stop_program>:
    1862:	ff cf       	rjmp	.-2      	; 0x1862 <__stop_program>
